                                      1 ;--------------------------------------------------------
                                      2 ; File Created by SDCC : free open source ANSI-C Compiler
                                      3 ; Version 4.1.6 #12539 (MINGW32)
                                      4 ;--------------------------------------------------------
                                      5 	.module main
                                      6 	.optsdcc -mgbz80
                                      7 	
                                      8 ;--------------------------------------------------------
                                      9 ; Public variables in this module
                                     10 ;--------------------------------------------------------
                                     11 	.globl _main
                                     12 	.globl _setWindowStat
                                     13 	.globl _loadDialogue
                                     14 	.globl _actualMap
                                     15 	.globl _loadNewBackGround
                                     16 	.globl _fadeIn
                                     17 	.globl _fadeOut
                                     18 	.globl _updateEnemyAnim
                                     19 	.globl _updateAnim
                                     20 	.globl _setSprite
                                     21 	.globl _enemyAttack
                                     22 	.globl _dash
                                     23 	.globl _jump
                                     24 	.globl _hitSurface
                                     25 	.globl _backGroundCollision
                                     26 	.globl _performtDelay
                                     27 	.globl _set_sprite_data
                                     28 	.globl _set_win_tiles
                                     29 	.globl _set_win_data
                                     30 	.globl _set_bkg_tiles
                                     31 	.globl _set_bkg_data
                                     32 	.globl _wait_vbl_done
                                     33 	.globl _waitpad
                                     34 	.globl _joypad
                                     35 	.globl _e_animation_tiles2
                                     36 	.globl _e_animation_tiles
                                     37 	.globl _animation_tiles2
                                     38 	.globl _animation_tiles
                                     39 	.globl _speedD
                                     40 	.globl _speedJ
                                     41 	.globl _from
                                     42 	.globl _enemySet
                                     43 	.globl _scrollAviable
                                     44 	.globl _frame
                                     45 	.globl _offset
                                     46 	.globl _r_stat_003
                                     47 	.globl _r_stat_002
                                     48 	.globl _r_stat_001
                                     49 	.globl _w_dialogue_003
                                     50 	.globl _w_dialogue_002
                                     51 	.globl _w_dialogue_001
                                     52 	.globl _r_portrait_tile
                                     53 	.globl _interior_map
                                     54 	.globl _interior_tiles
                                     55 	.globl _sprites
                                     56 	.globl _church_map
                                     57 	.globl _tiles_church
                                     58 	.globl _carryRow
                                     59 	.globl _reDash
                                     60 	.globl _dashAviable
                                     61 	.globl _jumpAllow
                                     62 	.globl _faceing
                                     63 	.globl _onAnim
                                     64 	.globl _dashCoolDown
                                     65 	.globl _downPCounter
                                     66 	.globl _sCounter
                                     67 	.globl _e_animation_counter
                                     68 	.globl _e_frame_count
                                     69 	.globl _dCounter
                                     70 	.globl _sX
                                     71 	.globl _i
                                     72 	.globl _ePosY
                                     73 	.globl _ePosX
                                     74 	.globl _floorPosition
                                     75 	.globl _boost
                                     76 	.globl _ii
                                     77 	.globl _tile_anim_count
                                     78 	.globl _pPosY
                                     79 	.globl _pPosX
                                     80 	.globl _animation_counter
                                     81 	.globl _frame_count
                                     82 	.globl _door
                                     83 ;--------------------------------------------------------
                                     84 ; special function registers
                                     85 ;--------------------------------------------------------
                                     86 ;--------------------------------------------------------
                                     87 ; ram data
                                     88 ;--------------------------------------------------------
                                     89 	.area _DATA
      000000                         90 _frame_count::
      000000                         91 	.ds 1
      000001                         92 _animation_counter::
      000001                         93 	.ds 1
      000002                         94 _pPosX::
      000002                         95 	.ds 1
      000003                         96 _pPosY::
      000003                         97 	.ds 1
      000004                         98 _tile_anim_count::
      000004                         99 	.ds 1
      000005                        100 _ii::
      000005                        101 	.ds 1
      000006                        102 _boost::
      000006                        103 	.ds 1
      000007                        104 _floorPosition::
      000007                        105 	.ds 1
      000008                        106 _ePosX::
      000008                        107 	.ds 1
      000009                        108 _ePosY::
      000009                        109 	.ds 1
      00000A                        110 _i::
      00000A                        111 	.ds 1
      00000B                        112 _sX::
      00000B                        113 	.ds 1
      00000C                        114 _dCounter::
      00000C                        115 	.ds 1
      00000D                        116 _e_frame_count::
      00000D                        117 	.ds 1
      00000E                        118 _e_animation_counter::
      00000E                        119 	.ds 1
      00000F                        120 _sCounter::
      00000F                        121 	.ds 1
      000010                        122 _downPCounter::
      000010                        123 	.ds 1
      000011                        124 _dashCoolDown::
      000011                        125 	.ds 1
      000012                        126 _onAnim::
      000012                        127 	.ds 1
      000013                        128 _faceing::
      000013                        129 	.ds 1
      000014                        130 _jumpAllow::
      000014                        131 	.ds 1
      000015                        132 _dashAviable::
      000015                        133 	.ds 1
      000016                        134 _reDash::
      000016                        135 	.ds 1
      000017                        136 _carryRow::
      000017                        137 	.ds 1
                                    138 ;--------------------------------------------------------
                                    139 ; ram data
                                    140 ;--------------------------------------------------------
                                    141 	.area _INITIALIZED
      000000                        142 _tiles_church::
      000000                        143 	.ds 1136
      000470                        144 _church_map::
      000470                        145 	.ds 360
      0005D8                        146 _sprites::
      0005D8                        147 	.ds 1024
      0009D8                        148 _interior_tiles::
      0009D8                        149 	.ds 688
      000C88                        150 _interior_map::
      000C88                        151 	.ds 720
      000F58                        152 _r_portrait_tile::
      000F58                        153 	.ds 832
      001298                        154 _w_dialogue_001::
      001298                        155 	.ds 60
      0012D4                        156 _w_dialogue_002::
      0012D4                        157 	.ds 60
      001310                        158 _w_dialogue_003::
      001310                        159 	.ds 60
      00134C                        160 _r_stat_001::
      00134C                        161 	.ds 60
      001388                        162 _r_stat_002::
      001388                        163 	.ds 60
      0013C4                        164 _r_stat_003::
      0013C4                        165 	.ds 60
      001400                        166 _offset::
      001400                        167 	.ds 1
      001401                        168 _frame::
      001401                        169 	.ds 1
      001402                        170 _scrollAviable::
      001402                        171 	.ds 1
      001403                        172 _enemySet::
      001403                        173 	.ds 1
      001404                        174 _from::
      001404                        175 	.ds 1
      001405                        176 _speedJ::
      001405                        177 	.ds 9
      00140E                        178 _speedD::
      00140E                        179 	.ds 4
      001412                        180 _animation_tiles::
      001412                        181 	.ds 3
      001415                        182 _animation_tiles2::
      001415                        183 	.ds 3
      001418                        184 _e_animation_tiles::
      001418                        185 	.ds 4
      00141C                        186 _e_animation_tiles2::
      00141C                        187 	.ds 4
                                    188 ;--------------------------------------------------------
                                    189 ; absolute external ram data
                                    190 ;--------------------------------------------------------
                                    191 	.area _DABS (ABS)
                                    192 ;--------------------------------------------------------
                                    193 ; global & static initialisations
                                    194 ;--------------------------------------------------------
                                    195 	.area _HOME
                                    196 	.area _GSINIT
                                    197 	.area _GSFINAL
                                    198 	.area _GSINIT
                                    199 ;--------------------------------------------------------
                                    200 ; Home
                                    201 ;--------------------------------------------------------
                                    202 	.area _HOME
                                    203 	.area _HOME
                                    204 ;--------------------------------------------------------
                                    205 ; code
                                    206 ;--------------------------------------------------------
                                    207 	.area _CODE
                                    208 ;main.c:35: void performtDelay(UINT8 delay){
                                    209 ;	---------------------------------
                                    210 ; Function performtDelay
                                    211 ; ---------------------------------
      000000                        212 _performtDelay::
                                    213 ;main.c:36: for(ii=0; ii<delay;ii++)
      000000 21r05r00               214 	ld	hl, #_ii
      000003 36 00                  215 	ld	(hl), #0x00
      000005                        216 00103$:
      000005 FAr05r00               217 	ld	a, (#_ii)
      000008 F8 02                  218 	ldhl	sp,	#2
      00000A 96                     219 	sub	a, (hl)
      00000B D0                     220 	ret	NC
                                    221 ;main.c:38: wait_vbl_done();
      00000C CDr00r00               222 	call	_wait_vbl_done
                                    223 ;main.c:36: for(ii=0; ii<delay;ii++)
      00000F 21r05r00               224 	ld	hl, #_ii
      000012 34                     225 	inc	(hl)
                                    226 ;main.c:40: }
      000013 18 F0                  227 	jr	00103$
      000015                        228 _door:
      000015 43                     229 	.db #0x43	;  67	'C'
                                    230 ;main.c:42: UBYTE backGroundCollision(UINT8 newplayerx, UINT8 newplayery, unsigned char *mapUsed){
                                    231 ;	---------------------------------
                                    232 ; Function backGroundCollision
                                    233 ; ---------------------------------
      000016                        234 _backGroundCollision::
      000016 E8 FA                  235 	add	sp, #-6
                                    236 ;main.c:46: indexTLx = (newplayerx - 8) / 8;
      000018 F8 08                  237 	ldhl	sp,	#8
      00001A 7E                     238 	ld	a, (hl)
      00001B F8 02                  239 	ldhl	sp,	#2
      00001D 22                     240 	ld	(hl+), a
      00001E AF                     241 	xor	a, a
      00001F 32                     242 	ld	(hl-), a
      000020 2A                     243 	ld	a, (hl+)
      000021 5F                     244 	ld	e, a
      000022 56                     245 	ld	d, (hl)
      000023 21 08 00               246 	ld	hl, #0x0008
      000026 7B                     247 	ld	a, e
      000027 95                     248 	sub	a, l
      000028 5F                     249 	ld	e, a
      000029 7A                     250 	ld	a, d
      00002A 9C                     251 	sbc	a, h
      00002B F8 05                  252 	ldhl	sp,	#5
      00002D 32                     253 	ld	(hl-), a
      00002E 73                     254 	ld	(hl), e
      00002F 2A                     255 	ld	a, (hl+)
      000030 4F                     256 	ld	c, a
      000031 46                     257 	ld	b, (hl)
      000032 CB 7E                  258 	bit	7, (hl)
      000034 28 0C                  259 	jr	Z, 00105$
      000036 2B                     260 	dec	hl
      000037 2B                     261 	dec	hl
      000038 2B                     262 	dec	hl
      000039 2A                     263 	ld	a, (hl+)
      00003A 5F                     264 	ld	e, a
      00003B 56                     265 	ld	d, (hl)
      00003C 21 FF FF               266 	ld	hl, #0xffff
      00003F 19                     267 	add	hl, de
      000040 4D                     268 	ld	c, l
      000041 44                     269 	ld	b, h
      000042                        270 00105$:
      000042 33                     271 	inc	sp
      000043 33                     272 	inc	sp
      000044 C5                     273 	push	bc
      000045 F8 01                  274 	ldhl	sp,	#1
      000047 CB 3E                  275 	srl	(hl)
      000049 2B                     276 	dec	hl
      00004A CB 1E                  277 	rr	(hl)
      00004C 23                     278 	inc	hl
      00004D CB 3E                  279 	srl	(hl)
      00004F 2B                     280 	dec	hl
      000050 CB 1E                  281 	rr	(hl)
      000052 23                     282 	inc	hl
      000053 CB 3E                  283 	srl	(hl)
      000055 2B                     284 	dec	hl
      000056 CB 1E                  285 	rr	(hl)
                                    286 ;main.c:47: indexTLy = (newplayery - 16) / 8;
      000058 F8 09                  287 	ldhl	sp,	#9
      00005A 7E                     288 	ld	a, (hl)
      00005B F8 02                  289 	ldhl	sp,	#2
      00005D 22                     290 	ld	(hl+), a
      00005E AF                     291 	xor	a, a
      00005F 32                     292 	ld	(hl-), a
      000060 2A                     293 	ld	a, (hl+)
      000061 5F                     294 	ld	e, a
      000062 56                     295 	ld	d, (hl)
      000063 21 10 00               296 	ld	hl, #0x0010
      000066 7B                     297 	ld	a, e
      000067 95                     298 	sub	a, l
      000068 5F                     299 	ld	e, a
      000069 7A                     300 	ld	a, d
      00006A 9C                     301 	sbc	a, h
      00006B F8 05                  302 	ldhl	sp,	#5
      00006D 32                     303 	ld	(hl-), a
      00006E 73                     304 	ld	(hl), e
      00006F 2A                     305 	ld	a, (hl+)
      000070 4F                     306 	ld	c, a
      000071 46                     307 	ld	b, (hl)
      000072 CB 7E                  308 	bit	7, (hl)
      000074 28 0C                  309 	jr	Z, 00106$
      000076 2B                     310 	dec	hl
      000077 2B                     311 	dec	hl
      000078 2B                     312 	dec	hl
      000079 2A                     313 	ld	a, (hl+)
      00007A 5F                     314 	ld	e, a
      00007B 56                     315 	ld	d, (hl)
      00007C 21 F7 FF               316 	ld	hl, #0xfff7
      00007F 19                     317 	add	hl, de
      000080 4D                     318 	ld	c, l
      000081 44                     319 	ld	b, h
      000082                        320 00106$:
      000082 CB 38                  321 	srl	b
      000084 CB 19                  322 	rr	c
      000086 CB 38                  323 	srl	b
      000088 CB 19                  324 	rr	c
      00008A CB 38                  325 	srl	b
      00008C CB 19                  326 	rr	c
                                    327 ;main.c:48: tileindexTL = 20 * indexTLy + indexTLx;
      00008E 69                     328 	ld	l, c
      00008F 60                     329 	ld	h, b
      000090 29                     330 	add	hl, hl
      000091 29                     331 	add	hl, hl
      000092 09                     332 	add	hl, bc
      000093 29                     333 	add	hl, hl
      000094 29                     334 	add	hl, hl
      000095 4D                     335 	ld	c, l
      000096 44                     336 	ld	b, h
      000097 E1                     337 	pop	hl
      000098 E5                     338 	push	hl
      000099 09                     339 	add	hl, bc
      00009A 4D                     340 	ld	c, l
      00009B 44                     341 	ld	b, h
                                    342 ;main.c:50: if(mapUsed == church_map){
      00009C F8 0A                  343 	ldhl	sp,	#10
      00009E 7E                     344 	ld	a, (hl)
      00009F D6r70                  345 	sub	a, #<(_church_map)
      0000A1 20 08                  346 	jr	NZ, 00122$
      0000A3 23                     347 	inc	hl
      0000A4 7E                     348 	ld	a, (hl)
      0000A5 D6s04                  349 	sub	a, #>(_church_map)
      0000A7 3E 01                  350 	ld	a, #0x01
      0000A9 28 01                  351 	jr	Z, 00123$
      0000AB                        352 00122$:
      0000AB AF                     353 	xor	a, a
      0000AC                        354 00123$:
      0000AC 1E 00                  355 	ld	e, #0x00
      0000AE B7                     356 	or	a, a
      0000AF 28 1F                  357 	jr	Z, 00102$
                                    358 ;main.c:51: result = mapUsed[tileindexTL] == door[0];
      0000B1 F8 0A                  359 	ldhl	sp,	#10
      0000B3 2A                     360 	ld	a,	(hl+)
      0000B4 66                     361 	ld	h, (hl)
      0000B5 6F                     362 	ld	l, a
      0000B6 09                     363 	add	hl, bc
      0000B7 4D                     364 	ld	c, l
      0000B8 44                     365 	ld	b, h
      0000B9 0A                     366 	ld	a, (bc)
      0000BA 4F                     367 	ld	c, a
      0000BB 06 00                  368 	ld	b, #0x00
      0000BD FAr15r00               369 	ld	a, (#_door + 0)
      0000C0 5F                     370 	ld	e, a
      0000C1 07                     371 	rlca
      0000C2 9F                     372 	sbc	a, a
      0000C3 57                     373 	ld	d, a
      0000C4 7B                     374 	ld	a, e
      0000C5 91                     375 	sub	a, c
      0000C6 20 06                  376 	jr	NZ, 00124$
      0000C8 7A                     377 	ld	a, d
      0000C9 90                     378 	sub	a, b
      0000CA 3E 01                  379 	ld	a, #0x01
      0000CC 28 01                  380 	jr	Z, 00125$
      0000CE                        381 00124$:
      0000CE AF                     382 	xor	a, a
      0000CF                        383 00125$:
      0000CF 5F                     384 	ld	e, a
      0000D0                        385 00102$:
                                    386 ;main.c:53: return result;
                                    387 ;main.c:54: }
      0000D0 E8 06                  388 	add	sp, #6
      0000D2 C9                     389 	ret
                                    390 ;main.c:56: UINT8 hitSurface(UINT8 projectedSurf){
                                    391 ;	---------------------------------
                                    392 ; Function hitSurface
                                    393 ; ---------------------------------
      0000D3                        394 _hitSurface::
                                    395 ;main.c:57: if(projectedSurf >= floorPosition){
      0000D3 F8 02                  396 	ldhl	sp,	#2
      0000D5 7E                     397 	ld	a, (hl)
      0000D6 21r07r00               398 	ld	hl, #_floorPosition
      0000D9 96                     399 	sub	a, (hl)
      0000DA 38 02                  400 	jr	C, 00102$
                                    401 ;main.c:58: return floorPosition;
      0000DC 5E                     402 	ld	e, (hl)
      0000DD C9                     403 	ret
      0000DE                        404 00102$:
                                    405 ;main.c:60: return -1;
      0000DE 1E FF                  406 	ld	e, #0xff
                                    407 ;main.c:61: }
      0000E0 C9                     408 	ret
                                    409 ;main.c:63: void jump(){
                                    410 ;	---------------------------------
                                    411 ; Function jump
                                    412 ; ---------------------------------
      0000E1                        413 _jump::
                                    414 ;c:/gbdk/include/gb/gb.h:1447: shadow_OAM[nb].tile=tile;
      0000E1 21r02r00               415 	ld	hl, #(_shadow_OAM + 2)
      0000E4 36 10                  416 	ld	(hl), #0x10
      0000E6 21r06r00               417 	ld	hl, #(_shadow_OAM + 6)
      0000E9 36 12                  418 	ld	(hl), #0x12
                                    419 ;main.c:69: if(jumpAllow==1)
      0000EB FAr14r00               420 	ld	a, (#_jumpAllow)
      0000EE 3D                     421 	dec	a
      0000EF 20 19                  422 	jr	NZ, 00102$
                                    423 ;main.c:71: jumpAllow = 0;
      0000F1 21r14r00               424 	ld	hl, #_jumpAllow
      0000F4 36 00                  425 	ld	(hl), #0x00
                                    426 ;main.c:72: NR10_REG = 0x29;
      0000F6 3E 29                  427 	ld	a, #0x29
      0000F8 E0r00                  428 	ldh	(_NR10_REG + 0), a
                                    429 ;main.c:73: NR11_REG = 0xA9;
      0000FA 3E A9                  430 	ld	a, #0xa9
      0000FC E0r00                  431 	ldh	(_NR11_REG + 0), a
                                    432 ;main.c:74: NR12_REG = 0x67;
      0000FE 3E 67                  433 	ld	a, #0x67
      000100 E0r00                  434 	ldh	(_NR12_REG + 0), a
                                    435 ;main.c:75: NR13_REG = 0x68;
      000102 3E 68                  436 	ld	a, #0x68
      000104 E0r00                  437 	ldh	(_NR13_REG + 0), a
                                    438 ;main.c:76: NR14_REG = 0x87;
      000106 3E 87                  439 	ld	a, #0x87
      000108 E0r00                  440 	ldh	(_NR14_REG + 0), a
      00010A                        441 00102$:
                                    442 ;main.c:78: if(boost<9){
      00010A 21r06r00               443 	ld	hl, #_boost
      00010D 7E                     444 	ld	a, (hl)
      00010E D6 09                  445 	sub	a, #0x09
      000110 30 01                  446 	jr	NC, 00104$
                                    447 ;main.c:79: boost++;
      000112 34                     448 	inc	(hl)
      000113                        449 00104$:
                                    450 ;main.c:82: pPosY =pPosY + speedJ[boost];
      000113 01r05r14               451 	ld	bc, #_speedJ+0
      000116 79                     452 	ld	a, c
      000117 21r06r00               453 	ld	hl, #_boost
      00011A 86                     454 	add	a, (hl)
      00011B 4F                     455 	ld	c, a
      00011C 30 01                  456 	jr	NC, 00161$
      00011E 04                     457 	inc	b
      00011F                        458 00161$:
      00011F 0A                     459 	ld	a, (bc)
      000120 21r03r00               460 	ld	hl, #_pPosY
      000123 86                     461 	add	a, (hl)
      000124 77                     462 	ld	(hl), a
                                    463 ;main.c:84: possibleFloor = hitSurface(pPosY);
      000125 7E                     464 	ld	a, (hl)
      000126 F5                     465 	push	af
      000127 33                     466 	inc	sp
      000128 CDrD3r00               467 	call	_hitSurface
      00012B 33                     468 	inc	sp
      00012C 43                     469 	ld	b, e
                                    470 ;main.c:90: if(faceing==1){
      00012D FAr13r00               471 	ld	a, (#_faceing)
      000130 3D                     472 	dec	a
      000131 3E 01                  473 	ld	a, #0x01
      000133 28 01                  474 	jr	Z, 00163$
      000135 AF                     475 	xor	a, a
      000136                        476 00163$:
      000136 4F                     477 	ld	c, a
                                    478 ;main.c:86: if(possibleFloor > -1)
      000137 58                     479 	ld	e, b
      000138 3E FF                  480 	ld	a,#0xff
      00013A 57                     481 	ld	d,a
      00013B 90                     482 	sub	a, b
      00013C CB 7B                  483 	bit	7, e
      00013E 28 07                  484 	jr	Z, 00164$
      000140 CB 7A                  485 	bit	7, d
      000142 20 08                  486 	jr	NZ, 00165$
      000144 BF                     487 	cp	a, a
      000145 18 05                  488 	jr	00165$
      000147                        489 00164$:
      000147 CB 7A                  490 	bit	7, d
      000149 28 01                  491 	jr	Z, 00165$
      00014B 37                     492 	scf
      00014C                        493 00165$:
      00014C D2rE4r01               494 	jp	NC, 00112$
                                    495 ;main.c:88: jumpAllow = 1;
      00014F 21r14r00               496 	ld	hl, #_jumpAllow
      000152 36 01                  497 	ld	(hl), #0x01
                                    498 ;main.c:89: boost=0;
      000154 21r06r00               499 	ld	hl, #_boost
      000157 36 00                  500 	ld	(hl), #0x00
                                    501 ;main.c:90: if(faceing==1){
      000159 79                     502 	ld	a, c
      00015A B7                     503 	or	a, a
      00015B 28 3E                  504 	jr	Z, 00106$
                                    505 ;c:/gbdk/include/gb/gb.h:1447: shadow_OAM[nb].tile=tile;
      00015D 21r02r00               506 	ld	hl, #(_shadow_OAM + 2)
      000160 36 00                  507 	ld	(hl), #0x00
      000162 21r06r00               508 	ld	hl, #(_shadow_OAM + 6)
      000165 36 02                  509 	ld	(hl), #0x02
                                    510 ;main.c:93: move_sprite(0,pPosX,pPosY);
      000167 21r03r00               511 	ld	hl, #_pPosY
      00016A 46                     512 	ld	b, (hl)
      00016B 21r02r00               513 	ld	hl, #_pPosX
      00016E 4E                     514 	ld	c, (hl)
                                    515 ;c:/gbdk/include/gb/gb.h:1520: OAM_item_t * itm = &shadow_OAM[nb];
      00016F 21r00r00               516 	ld	hl, #_shadow_OAM
                                    517 ;c:/gbdk/include/gb/gb.h:1521: itm->y=y, itm->x=x;
      000172 78                     518 	ld	a, b
      000173 22                     519 	ld	(hl+), a
      000174 71                     520 	ld	(hl), c
                                    521 ;main.c:94: move_sprite(1,pPosX+offset,pPosY);
      000175 21r03r00               522 	ld	hl, #_pPosY
      000178 46                     523 	ld	b, (hl)
      000179 FAr02r00               524 	ld	a, (#_pPosX)
      00017C 21r00r14               525 	ld	hl, #_offset
      00017F 86                     526 	add	a, (hl)
      000180 4F                     527 	ld	c, a
                                    528 ;c:/gbdk/include/gb/gb.h:1520: OAM_item_t * itm = &shadow_OAM[nb];
      000181 21r04r00               529 	ld	hl, #(_shadow_OAM + 4)
                                    530 ;c:/gbdk/include/gb/gb.h:1521: itm->y=y, itm->x=x;
      000184 78                     531 	ld	a, b
      000185 22                     532 	ld	(hl+), a
      000186 71                     533 	ld	(hl), c
                                    534 ;main.c:95: move_sprite(2,pPosX+offset,pPosY);
      000187 21r03r00               535 	ld	hl, #_pPosY
      00018A 46                     536 	ld	b, (hl)
      00018B FAr02r00               537 	ld	a, (#_pPosX)
      00018E 21r00r14               538 	ld	hl, #_offset
      000191 86                     539 	add	a, (hl)
      000192 4F                     540 	ld	c, a
                                    541 ;c:/gbdk/include/gb/gb.h:1520: OAM_item_t * itm = &shadow_OAM[nb];
      000193 21r08r00               542 	ld	hl, #(_shadow_OAM + 8)
                                    543 ;c:/gbdk/include/gb/gb.h:1521: itm->y=y, itm->x=x;
      000196 78                     544 	ld	a, b
      000197 22                     545 	ld	(hl+), a
      000198 71                     546 	ld	(hl), c
                                    547 ;main.c:95: move_sprite(2,pPosX+offset,pPosY);
      000199 18 38                  548 	jr	00107$
      00019B                        549 00106$:
                                    550 ;c:/gbdk/include/gb/gb.h:1447: shadow_OAM[nb].tile=tile;
      00019B 21r02r00               551 	ld	hl, #(_shadow_OAM + 2)
      00019E 36 00                  552 	ld	(hl), #0x00
      0001A0 21r06r00               553 	ld	hl, #(_shadow_OAM + 6)
      0001A3 36 02                  554 	ld	(hl), #0x02
                                    555 ;main.c:101: move_sprite(0,pPosX+offset,pPosY);
      0001A5 21r03r00               556 	ld	hl, #_pPosY
      0001A8 5E                     557 	ld	e, (hl)
      0001A9 FAr02r00               558 	ld	a, (#_pPosX)
      0001AC 21r00r14               559 	ld	hl, #_offset
      0001AF 86                     560 	add	a, (hl)
      0001B0 4F                     561 	ld	c, a
                                    562 ;c:/gbdk/include/gb/gb.h:1520: OAM_item_t * itm = &shadow_OAM[nb];
      0001B1 21r00r00               563 	ld	hl, #_shadow_OAM
                                    564 ;c:/gbdk/include/gb/gb.h:1521: itm->y=y, itm->x=x;
      0001B4 7B                     565 	ld	a, e
      0001B5 22                     566 	ld	(hl+), a
      0001B6 71                     567 	ld	(hl), c
                                    568 ;main.c:102: move_sprite(1,pPosX,pPosY);
      0001B7 21r03r00               569 	ld	hl, #_pPosY
      0001BA 5E                     570 	ld	e, (hl)
      0001BB 21r02r00               571 	ld	hl, #_pPosX
      0001BE 4E                     572 	ld	c, (hl)
                                    573 ;c:/gbdk/include/gb/gb.h:1520: OAM_item_t * itm = &shadow_OAM[nb];
      0001BF 21r04r00               574 	ld	hl, #(_shadow_OAM + 4)
                                    575 ;c:/gbdk/include/gb/gb.h:1521: itm->y=y, itm->x=x;
      0001C2 7B                     576 	ld	a, e
      0001C3 22                     577 	ld	(hl+), a
      0001C4 71                     578 	ld	(hl), c
                                    579 ;main.c:103: move_sprite(2,pPosX,pPosY);
      0001C5 21r03r00               580 	ld	hl, #_pPosY
      0001C8 5E                     581 	ld	e, (hl)
      0001C9 21r02r00               582 	ld	hl, #_pPosX
      0001CC 4E                     583 	ld	c, (hl)
                                    584 ;c:/gbdk/include/gb/gb.h:1520: OAM_item_t * itm = &shadow_OAM[nb];
      0001CD 21r08r00               585 	ld	hl, #(_shadow_OAM + 8)
                                    586 ;c:/gbdk/include/gb/gb.h:1521: itm->y=y, itm->x=x;
      0001D0 7B                     587 	ld	a, e
      0001D1 22                     588 	ld	(hl+), a
      0001D2 71                     589 	ld	(hl), c
                                    590 ;main.c:103: move_sprite(2,pPosX,pPosY);
      0001D3                        591 00107$:
                                    592 ;main.c:105: NR41_REG = 0x01;
      0001D3 3E 01                  593 	ld	a, #0x01
      0001D5 E0r00                  594 	ldh	(_NR41_REG + 0), a
                                    595 ;main.c:106: NR42_REG = 0x82;
      0001D7 3E 82                  596 	ld	a, #0x82
      0001D9 E0r00                  597 	ldh	(_NR42_REG + 0), a
                                    598 ;main.c:107: NR43_REG = 0x21;
      0001DB 3E 21                  599 	ld	a, #0x21
      0001DD E0r00                  600 	ldh	(_NR43_REG + 0), a
                                    601 ;main.c:108: NR44_REG = 0xC0;
      0001DF 3E C0                  602 	ld	a, #0xc0
      0001E1 E0r00                  603 	ldh	(_NR44_REG + 0), a
      0001E3 C9                     604 	ret
      0001E4                        605 00112$:
                                    606 ;main.c:93: move_sprite(0,pPosX,pPosY);
      0001E4 21r03r00               607 	ld	hl, #_pPosY
      0001E7 46                     608 	ld	b, (hl)
                                    609 ;main.c:112: if(faceing==1){
      0001E8 79                     610 	ld	a, c
      0001E9 B7                     611 	or	a, a
      0001EA 28 2F                  612 	jr	Z, 00109$
                                    613 ;main.c:113: move_sprite(0,pPosX,pPosY);
      0001EC 21r02r00               614 	ld	hl, #_pPosX
      0001EF 4E                     615 	ld	c, (hl)
                                    616 ;c:/gbdk/include/gb/gb.h:1520: OAM_item_t * itm = &shadow_OAM[nb];
      0001F0 21r00r00               617 	ld	hl, #_shadow_OAM
                                    618 ;c:/gbdk/include/gb/gb.h:1521: itm->y=y, itm->x=x;
      0001F3 78                     619 	ld	a, b
      0001F4 22                     620 	ld	(hl+), a
      0001F5 71                     621 	ld	(hl), c
                                    622 ;main.c:114: move_sprite(1,pPosX+offset,pPosY);
      0001F6 21r03r00               623 	ld	hl, #_pPosY
      0001F9 4E                     624 	ld	c, (hl)
      0001FA FAr02r00               625 	ld	a, (#_pPosX)
      0001FD 21r00r14               626 	ld	hl, #_offset
      000200 86                     627 	add	a, (hl)
      000201 5F                     628 	ld	e, a
                                    629 ;c:/gbdk/include/gb/gb.h:1520: OAM_item_t * itm = &shadow_OAM[nb];
      000202 21r04r00               630 	ld	hl, #(_shadow_OAM + 4)
                                    631 ;c:/gbdk/include/gb/gb.h:1521: itm->y=y, itm->x=x;
      000205 79                     632 	ld	a, c
      000206 22                     633 	ld	(hl+), a
      000207 73                     634 	ld	(hl), e
                                    635 ;main.c:115: move_sprite(2,pPosX+offset,pPosY);
      000208 21r03r00               636 	ld	hl, #_pPosY
      00020B 4E                     637 	ld	c, (hl)
      00020C FAr02r00               638 	ld	a, (#_pPosX)
      00020F 21r00r14               639 	ld	hl, #_offset
      000212 86                     640 	add	a, (hl)
      000213 5F                     641 	ld	e, a
                                    642 ;c:/gbdk/include/gb/gb.h:1520: OAM_item_t * itm = &shadow_OAM[nb];
      000214 21r08r00               643 	ld	hl, #(_shadow_OAM + 8)
                                    644 ;c:/gbdk/include/gb/gb.h:1521: itm->y=y, itm->x=x;
      000217 79                     645 	ld	a, c
      000218 22                     646 	ld	(hl+), a
      000219 73                     647 	ld	(hl), e
                                    648 ;main.c:115: move_sprite(2,pPosX+offset,pPosY);
      00021A C9                     649 	ret
      00021B                        650 00109$:
                                    651 ;main.c:119: move_sprite(0,pPosX+offset,pPosY);
      00021B FAr02r00               652 	ld	a, (#_pPosX)
      00021E 21r00r14               653 	ld	hl, #_offset
      000221 86                     654 	add	a, (hl)
      000222 4F                     655 	ld	c, a
                                    656 ;c:/gbdk/include/gb/gb.h:1520: OAM_item_t * itm = &shadow_OAM[nb];
      000223 21r00r00               657 	ld	hl, #_shadow_OAM
                                    658 ;c:/gbdk/include/gb/gb.h:1521: itm->y=y, itm->x=x;
      000226 78                     659 	ld	a, b
      000227 22                     660 	ld	(hl+), a
      000228 71                     661 	ld	(hl), c
                                    662 ;main.c:120: move_sprite(1,pPosX,pPosY);
      000229 21r03r00               663 	ld	hl, #_pPosY
      00022C 4E                     664 	ld	c, (hl)
      00022D 21r02r00               665 	ld	hl, #_pPosX
      000230 46                     666 	ld	b, (hl)
                                    667 ;c:/gbdk/include/gb/gb.h:1520: OAM_item_t * itm = &shadow_OAM[nb];
      000231 21r04r00               668 	ld	hl, #(_shadow_OAM + 4)
                                    669 ;c:/gbdk/include/gb/gb.h:1521: itm->y=y, itm->x=x;
      000234 79                     670 	ld	a, c
      000235 22                     671 	ld	(hl+), a
      000236 70                     672 	ld	(hl), b
                                    673 ;main.c:121: move_sprite(2,pPosX,pPosY);
      000237 21r03r00               674 	ld	hl, #_pPosY
      00023A 4E                     675 	ld	c, (hl)
      00023B 21r02r00               676 	ld	hl, #_pPosX
      00023E 46                     677 	ld	b, (hl)
                                    678 ;c:/gbdk/include/gb/gb.h:1520: OAM_item_t * itm = &shadow_OAM[nb];
      00023F 21r08r00               679 	ld	hl, #(_shadow_OAM + 8)
                                    680 ;c:/gbdk/include/gb/gb.h:1521: itm->y=y, itm->x=x;
      000242 79                     681 	ld	a, c
      000243 22                     682 	ld	(hl+), a
      000244 70                     683 	ld	(hl), b
                                    684 ;main.c:121: move_sprite(2,pPosX,pPosY);
                                    685 ;main.c:124: }
      000245 C9                     686 	ret
                                    687 ;main.c:126: void dash(){   
                                    688 ;	---------------------------------
                                    689 ; Function dash
                                    690 ; ---------------------------------
      000246                        691 _dash::
                                    692 ;c:/gbdk/include/gb/gb.h:1447: shadow_OAM[nb].tile=tile;
      000246 21r02r00               693 	ld	hl, #(_shadow_OAM + 2)
      000249 36 3C                  694 	ld	(hl), #0x3c
      00024B 21r06r00               695 	ld	hl, #(_shadow_OAM + 6)
      00024E 36 3E                  696 	ld	(hl), #0x3e
                                    697 ;main.c:131: if(dashAviable==1 && reDash==0){
      000250 FAr15r00               698 	ld	a, (#_dashAviable)
      000253 3D                     699 	dec	a
      000254 20 1B                  700 	jr	NZ, 00102$
      000256 FAr16r00               701 	ld	a, (#_reDash)
      000259 B7                     702 	or	a, a
      00025A 20 15                  703 	jr	NZ, 00102$
                                    704 ;main.c:132: dashAviable=0;
      00025C 21r15r00               705 	ld	hl, #_dashAviable
      00025F 36 00                  706 	ld	(hl), #0x00
                                    707 ;main.c:133: NR41_REG = 0X3F;
      000261 3E 3F                  708 	ld	a, #0x3f
      000263 E0r00                  709 	ldh	(_NR41_REG + 0), a
                                    710 ;main.c:134: NR42_REG = 0XC2;
      000265 3E C2                  711 	ld	a, #0xc2
      000267 E0r00                  712 	ldh	(_NR42_REG + 0), a
                                    713 ;main.c:135: NR43_REG = 0X11;
      000269 3E 11                  714 	ld	a, #0x11
      00026B E0r00                  715 	ldh	(_NR43_REG + 0), a
                                    716 ;main.c:136: NR44_REG = 0X80;
      00026D 3E 80                  717 	ld	a, #0x80
      00026F E0r00                  718 	ldh	(_NR44_REG + 0), a
      000271                        719 00102$:
                                    720 ;main.c:139: dCounter++;
      000271 21r0Cr00               721 	ld	hl, #_dCounter
      000274 34                     722 	inc	(hl)
                                    723 ;main.c:140: if(dCounter<=4){
      000275 3E 04                  724 	ld	a, #0x04
      000277 96                     725 	sub	a, (hl)
      000278 38 65                  726 	jr	C, 00108$
                                    727 ;main.c:143: move_sprite(0,pPosX,pPosY);
      00027A 21r03r00               728 	ld	hl, #_pPosY
      00027D 5E                     729 	ld	e, (hl)
                                    730 ;main.c:141: if(faceing==1){
      00027E FAr13r00               731 	ld	a, (#_faceing)
      000281 3D                     732 	dec	a
      000282 20 2D                  733 	jr	NZ, 00105$
                                    734 ;main.c:142: pPosX+=speedD[dCounter];
      000284 01r0Er14               735 	ld	bc, #_speedD+0
      000287 79                     736 	ld	a, c
      000288 21r0Cr00               737 	ld	hl, #_dCounter
      00028B 86                     738 	add	a, (hl)
      00028C 4F                     739 	ld	c, a
      00028D 30 01                  740 	jr	NC, 00150$
      00028F 04                     741 	inc	b
      000290                        742 00150$:
      000290 0A                     743 	ld	a, (bc)
      000291 21r02r00               744 	ld	hl, #_pPosX
      000294 86                     745 	add	a, (hl)
      000295 77                     746 	ld	(hl), a
                                    747 ;main.c:143: move_sprite(0,pPosX,pPosY);
      000296 4E                     748 	ld	c, (hl)
                                    749 ;c:/gbdk/include/gb/gb.h:1520: OAM_item_t * itm = &shadow_OAM[nb];
      000297 21r00r00               750 	ld	hl, #_shadow_OAM
                                    751 ;c:/gbdk/include/gb/gb.h:1521: itm->y=y, itm->x=x;
      00029A 7B                     752 	ld	a, e
      00029B 22                     753 	ld	(hl+), a
      00029C 71                     754 	ld	(hl), c
                                    755 ;main.c:144: move_sprite(1,pPosX+offset,pPosY);
      00029D 21r03r00               756 	ld	hl, #_pPosY
      0002A0 5E                     757 	ld	e, (hl)
      0002A1 FAr02r00               758 	ld	a, (#_pPosX)
      0002A4 21r00r14               759 	ld	hl, #_offset
      0002A7 86                     760 	add	a, (hl)
      0002A8 4F                     761 	ld	c, a
                                    762 ;c:/gbdk/include/gb/gb.h:1520: OAM_item_t * itm = &shadow_OAM[nb];
      0002A9 21r04r00               763 	ld	hl, #(_shadow_OAM + 4)
                                    764 ;c:/gbdk/include/gb/gb.h:1521: itm->y=y, itm->x=x;
      0002AC 7B                     765 	ld	a, e
      0002AD 22                     766 	ld	(hl+), a
      0002AE 71                     767 	ld	(hl), c
                                    768 ;main.c:144: move_sprite(1,pPosX+offset,pPosY);
      0002AF 18 2E                  769 	jr	00108$
      0002B1                        770 00105$:
                                    771 ;main.c:147: pPosX-=speedD[dCounter];
      0002B1 01r0Er14               772 	ld	bc, #_speedD+0
      0002B4 79                     773 	ld	a, c
      0002B5 21r0Cr00               774 	ld	hl, #_dCounter
      0002B8 86                     775 	add	a, (hl)
      0002B9 4F                     776 	ld	c, a
      0002BA 30 01                  777 	jr	NC, 00151$
      0002BC 04                     778 	inc	b
      0002BD                        779 00151$:
      0002BD 0A                     780 	ld	a, (bc)
      0002BE 4F                     781 	ld	c, a
      0002BF 21r02r00               782 	ld	hl, #_pPosX
      0002C2 7E                     783 	ld	a, (hl)
      0002C3 91                     784 	sub	a, c
      0002C4 77                     785 	ld	(hl), a
                                    786 ;main.c:148: move_sprite(0,pPosX+offset,pPosY);
      0002C5 7E                     787 	ld	a, (hl)
      0002C6 21r00r14               788 	ld	hl, #_offset
      0002C9 86                     789 	add	a, (hl)
      0002CA 4F                     790 	ld	c, a
                                    791 ;c:/gbdk/include/gb/gb.h:1520: OAM_item_t * itm = &shadow_OAM[nb];
      0002CB 21r00r00               792 	ld	hl, #_shadow_OAM
                                    793 ;c:/gbdk/include/gb/gb.h:1521: itm->y=y, itm->x=x;
      0002CE 7B                     794 	ld	a, e
      0002CF 22                     795 	ld	(hl+), a
      0002D0 71                     796 	ld	(hl), c
                                    797 ;main.c:149: move_sprite(1,pPosX,pPosY);
      0002D1 21r03r00               798 	ld	hl, #_pPosY
      0002D4 46                     799 	ld	b, (hl)
      0002D5 21r02r00               800 	ld	hl, #_pPosX
      0002D8 4E                     801 	ld	c, (hl)
                                    802 ;c:/gbdk/include/gb/gb.h:1520: OAM_item_t * itm = &shadow_OAM[nb];
      0002D9 21r04r00               803 	ld	hl, #(_shadow_OAM + 4)
                                    804 ;c:/gbdk/include/gb/gb.h:1521: itm->y=y, itm->x=x;
      0002DC 78                     805 	ld	a, b
      0002DD 22                     806 	ld	(hl+), a
      0002DE 71                     807 	ld	(hl), c
                                    808 ;main.c:149: move_sprite(1,pPosX,pPosY);
      0002DF                        809 00108$:
                                    810 ;main.c:152: if(dCounter>3){
      0002DF 3E 03                  811 	ld	a, #0x03
      0002E1 21r0Cr00               812 	ld	hl, #_dCounter
      0002E4 96                     813 	sub	a, (hl)
      0002E5 D0                     814 	ret	NC
                                    815 ;main.c:153: dCounter=0;
      0002E6 36 00                  816 	ld	(hl), #0x00
                                    817 ;main.c:154: reDash=1;
      0002E8 21r16r00               818 	ld	hl, #_reDash
      0002EB 36 01                  819 	ld	(hl), #0x01
                                    820 ;main.c:155: dashAviable=1;
      0002ED 21r15r00               821 	ld	hl, #_dashAviable
      0002F0 36 01                  822 	ld	(hl), #0x01
                                    823 ;c:/gbdk/include/gb/gb.h:1447: shadow_OAM[nb].tile=tile;
      0002F2 21r02r00               824 	ld	hl, #(_shadow_OAM + 2)
      0002F5 36 00                  825 	ld	(hl), #0x00
      0002F7 21r06r00               826 	ld	hl, #(_shadow_OAM + 6)
      0002FA 36 02                  827 	ld	(hl), #0x02
                                    828 ;main.c:157: set_sprite_tile(1,2);
                                    829 ;main.c:160: }
      0002FC C9                     830 	ret
                                    831 ;main.c:162: void enemyAttack(){ //necesita correcin, el enemigo no alcanza al jugador y se retira despus de que pasa cierto limite el jugador
                                    832 ;	---------------------------------
                                    833 ; Function enemyAttack
                                    834 ; ---------------------------------
      0002FD                        835 _enemyAttack::
                                    836 ;main.c:163: if(ePosX >= 0 && from == 0){
      0002FD FAr04r14               837 	ld	a, (#_from)
      000300 B7                     838 	or	a, a
      000301 20 3B                  839 	jr	NZ, 00102$
                                    840 ;c:/gbdk/include/gb/gb.h:1503: return shadow_OAM[nb].prop;
      000303 FAr0Fr00               841 	ld	a, (#(_shadow_OAM + 15) + 0)
                                    842 ;main.c:164: set_sprite_prop(3,get_sprite_prop(3) & ~S_FLIPX);
      000306 4F                     843 	ld	c, a
      000307 CB A9                  844 	res	5, c
                                    845 ;c:/gbdk/include/gb/gb.h:1493: shadow_OAM[nb].prop=prop;
      000309 21r0Fr00               846 	ld	hl, #(_shadow_OAM + 15)
      00030C 71                     847 	ld	(hl), c
                                    848 ;c:/gbdk/include/gb/gb.h:1503: return shadow_OAM[nb].prop;
      00030D FAr13r00               849 	ld	a, (#(_shadow_OAM + 19) + 0)
                                    850 ;main.c:165: set_sprite_prop(4,get_sprite_prop(4) & ~S_FLIPX);
      000310 4F                     851 	ld	c, a
      000311 CB A9                  852 	res	5, c
                                    853 ;c:/gbdk/include/gb/gb.h:1493: shadow_OAM[nb].prop=prop;
      000313 21r13r00               854 	ld	hl, #(_shadow_OAM + 19)
      000316 71                     855 	ld	(hl), c
                                    856 ;main.c:166: ePosX -= 4;
      000317 21r08r00               857 	ld	hl, #_ePosX
      00031A 7E                     858 	ld	a, (hl)
      00031B C6 FC                  859 	add	a, #0xfc
      00031D 77                     860 	ld	(hl), a
                                    861 ;main.c:167: move_sprite(3,ePosX,ePosY);
      00031E 21r09r00               862 	ld	hl, #_ePosY
      000321 46                     863 	ld	b, (hl)
      000322 21r08r00               864 	ld	hl, #_ePosX
      000325 4E                     865 	ld	c, (hl)
                                    866 ;c:/gbdk/include/gb/gb.h:1520: OAM_item_t * itm = &shadow_OAM[nb];
      000326 21r0Cr00               867 	ld	hl, #(_shadow_OAM + 12)
                                    868 ;c:/gbdk/include/gb/gb.h:1521: itm->y=y, itm->x=x;
      000329 78                     869 	ld	a, b
      00032A 22                     870 	ld	(hl+), a
      00032B 71                     871 	ld	(hl), c
                                    872 ;main.c:168: move_sprite(4,ePosX+offset,ePosY);
      00032C 21r09r00               873 	ld	hl, #_ePosY
      00032F 46                     874 	ld	b, (hl)
      000330 FAr08r00               875 	ld	a, (#_ePosX)
      000333 21r00r14               876 	ld	hl, #_offset
      000336 86                     877 	add	a, (hl)
      000337 4F                     878 	ld	c, a
                                    879 ;c:/gbdk/include/gb/gb.h:1520: OAM_item_t * itm = &shadow_OAM[nb];
      000338 21r10r00               880 	ld	hl, #(_shadow_OAM + 16)
                                    881 ;c:/gbdk/include/gb/gb.h:1521: itm->y=y, itm->x=x;
      00033B 78                     882 	ld	a, b
      00033C 22                     883 	ld	(hl+), a
      00033D 71                     884 	ld	(hl), c
                                    885 ;main.c:168: move_sprite(4,ePosX+offset,ePosY);
      00033E                        886 00102$:
                                    887 ;main.c:170: if(from==1){
      00033E FAr04r14               888 	ld	a, (#_from)
      000341 3D                     889 	dec	a
      000342 20 31                  890 	jr	NZ, 00105$
                                    891 ;c:/gbdk/include/gb/gb.h:1493: shadow_OAM[nb].prop=prop;
      000344 21r0Fr00               892 	ld	hl, #(_shadow_OAM + 15)
      000347 36 20                  893 	ld	(hl), #0x20
      000349 21r13r00               894 	ld	hl, #(_shadow_OAM + 19)
      00034C 36 20                  895 	ld	(hl), #0x20
                                    896 ;main.c:173: ePosX += 4;
      00034E 21r08r00               897 	ld	hl, #_ePosX
      000351 7E                     898 	ld	a, (hl)
      000352 C6 04                  899 	add	a, #0x04
      000354 77                     900 	ld	(hl), a
                                    901 ;main.c:174: move_sprite(3,ePosX+offset,ePosY);
      000355 21r09r00               902 	ld	hl, #_ePosY
      000358 46                     903 	ld	b, (hl)
      000359 FAr08r00               904 	ld	a, (#_ePosX)
      00035C 21r00r14               905 	ld	hl, #_offset
      00035F 86                     906 	add	a, (hl)
      000360 4F                     907 	ld	c, a
                                    908 ;c:/gbdk/include/gb/gb.h:1520: OAM_item_t * itm = &shadow_OAM[nb];
      000361 21r0Cr00               909 	ld	hl, #(_shadow_OAM + 12)
                                    910 ;c:/gbdk/include/gb/gb.h:1521: itm->y=y, itm->x=x;
      000364 78                     911 	ld	a, b
      000365 22                     912 	ld	(hl+), a
      000366 71                     913 	ld	(hl), c
                                    914 ;main.c:175: move_sprite(4,ePosX,ePosY);
      000367 21r09r00               915 	ld	hl, #_ePosY
      00036A 46                     916 	ld	b, (hl)
      00036B 21r08r00               917 	ld	hl, #_ePosX
      00036E 4E                     918 	ld	c, (hl)
                                    919 ;c:/gbdk/include/gb/gb.h:1520: OAM_item_t * itm = &shadow_OAM[nb];
      00036F 21r10r00               920 	ld	hl, #(_shadow_OAM + 16)
                                    921 ;c:/gbdk/include/gb/gb.h:1521: itm->y=y, itm->x=x;
      000372 78                     922 	ld	a, b
      000373 22                     923 	ld	(hl+), a
      000374 71                     924 	ld	(hl), c
                                    925 ;main.c:175: move_sprite(4,ePosX,ePosY);
      000375                        926 00105$:
                                    927 ;main.c:179: if(ePosX <= 0){
      000375 FAr08r00               928 	ld	a, (#_ePosX)
      000378 B7                     929 	or	a, a
      000379 20 05                  930 	jr	NZ, 00107$
                                    931 ;main.c:180: from = 1;
      00037B 21r04r14               932 	ld	hl, #_from
      00037E 36 01                  933 	ld	(hl), #0x01
      000380                        934 00107$:
                                    935 ;main.c:182: if(ePosX >= 152){
      000380 FAr08r00               936 	ld	a, (#_ePosX)
      000383 D6 98                  937 	sub	a, #0x98
      000385 D8                     938 	ret	C
                                    939 ;main.c:183: from = 0;
      000386 21r04r14               940 	ld	hl, #_from
      000389 36 00                  941 	ld	(hl), #0x00
                                    942 ;main.c:185: }
      00038B C9                     943 	ret
                                    944 ;main.c:187: void setSprite(UINT8 posI1, UINT8 posI2, UINT8 firstTile, UINT8 secondTile, UINT8 posx, UINT8 posy){
                                    945 ;	---------------------------------
                                    946 ; Function setSprite
                                    947 ; ---------------------------------
      00038C                        948 _setSprite::
      00038C E8 FD                  949 	add	sp, #-3
                                    950 ;main.c:188: set_sprite_tile(posI1,firstTile);
      00038E F8 07                  951 	ldhl	sp,	#7
      000390 3A                     952 	ld	a, (hl-)
      000391 2B                     953 	dec	hl
      000392 5F                     954 	ld	e, a
                                    955 ;c:/gbdk/include/gb/gb.h:1447: shadow_OAM[nb].tile=tile;
      000393 6E                     956 	ld	l, (hl)
                                    957 ;	spillPairReg hl
                                    958 ;	spillPairReg hl
      000394 26 00                  959 	ld	h, #0x00
                                    960 ;	spillPairReg hl
                                    961 ;	spillPairReg hl
      000396 29                     962 	add	hl, hl
      000397 29                     963 	add	hl, hl
      000398 4D                     964 	ld	c, l
      000399 44                     965 	ld	b, h
      00039A 21r01r00               966 	ld	hl,#_shadow_OAM + 1
      00039D 09                     967 	add	hl,bc
      00039E 23                     968 	inc	hl
      00039F 73                     969 	ld	(hl), e
                                    970 ;main.c:189: set_sprite_tile(posI2,secondTile);
      0003A0 F8 08                  971 	ldhl	sp,	#8
      0003A2 7E                     972 	ld	a, (hl)
      0003A3 F8 00                  973 	ldhl	sp,	#0
      0003A5 77                     974 	ld	(hl), a
      0003A6 F8 06                  975 	ldhl	sp,	#6
      0003A8 5E                     976 	ld	e, (hl)
                                    977 ;c:/gbdk/include/gb/gb.h:1447: shadow_OAM[nb].tile=tile;
      0003A9 AF                     978 	xor	a, a
      0003AA CB 23                  979 	sla	e
      0003AC 8F                     980 	adc	a, a
      0003AD CB 23                  981 	sla	e
      0003AF 8F                     982 	adc	a, a
      0003B0 F8 01                  983 	ldhl	sp,	#1
      0003B2 73                     984 	ld	(hl), e
      0003B3 23                     985 	inc	hl
      0003B4 32                     986 	ld	(hl-), a
      0003B5 2A                     987 	ld	a, (hl+)
      0003B6 5F                     988 	ld	e, a
      0003B7 56                     989 	ld	d, (hl)
      0003B8 21r01r00               990 	ld	hl,#_shadow_OAM + 1
      0003BB 19                     991 	add	hl,de
      0003BC 23                     992 	inc	hl
      0003BD 5D                     993 	ld	e, l
      0003BE 54                     994 	ld	d, h
      0003BF F8 00                  995 	ldhl	sp,	#0
      0003C1 7E                     996 	ld	a, (hl)
      0003C2 12                     997 	ld	(de), a
                                    998 ;main.c:190: move_sprite(posI1,posx,posy);
      0003C3 F8 0A                  999 	ldhl	sp,	#10
      0003C5 3A                    1000 	ld	a, (hl-)
      0003C6 57                    1001 	ld	d, a
      0003C7 5E                    1002 	ld	e, (hl)
                                   1003 ;c:/gbdk/include/gb/gb.h:1520: OAM_item_t * itm = &shadow_OAM[nb];
      0003C8 21r00r00              1004 	ld	hl, #_shadow_OAM
      0003CB 09                    1005 	add	hl, bc
                                   1006 ;c:/gbdk/include/gb/gb.h:1521: itm->y=y, itm->x=x;
      0003CC 7A                    1007 	ld	a, d
      0003CD 22                    1008 	ld	(hl+), a
      0003CE 73                    1009 	ld	(hl), e
                                   1010 ;main.c:191: move_sprite(posI2,posx+offset,posy);
      0003CF 7B                    1011 	ld	a, e
      0003D0 21r00r14              1012 	ld	hl, #_offset
      0003D3 86                    1013 	add	a, (hl)
      0003D4 5F                    1014 	ld	e, a
                                   1015 ;c:/gbdk/include/gb/gb.h:1520: OAM_item_t * itm = &shadow_OAM[nb];
      0003D5 01r00r00              1016 	ld	bc, #_shadow_OAM+0
      0003D8 F8 01                 1017 	ldhl	sp,	#1
      0003DA 2A                    1018 	ld	a,	(hl+)
      0003DB 66                    1019 	ld	h, (hl)
      0003DC 6F                    1020 	ld	l, a
      0003DD 09                    1021 	add	hl, bc
      0003DE 4D                    1022 	ld	c, l
      0003DF 44                    1023 	ld	b, h
                                   1024 ;c:/gbdk/include/gb/gb.h:1521: itm->y=y, itm->x=x;
      0003E0 7A                    1025 	ld	a, d
      0003E1 02                    1026 	ld	(bc), a
      0003E2 03                    1027 	inc	bc
      0003E3 7B                    1028 	ld	a, e
      0003E4 02                    1029 	ld	(bc), a
                                   1030 ;main.c:191: move_sprite(posI2,posx+offset,posy);
                                   1031 ;main.c:192: }
      0003E5 E8 03                 1032 	add	sp, #3
      0003E7 C9                    1033 	ret
                                   1034 ;main.c:194: void updateAnim(){
                                   1035 ;	---------------------------------
                                   1036 ; Function updateAnim
                                   1037 ; ---------------------------------
      0003E8                       1038 _updateAnim::
                                   1039 ;main.c:195: frame_count++;
      0003E8 21r00r00              1040 	ld	hl, #_frame_count
      0003EB 34                    1041 	inc	(hl)
                                   1042 ;main.c:198: if (frame_count >= FRAMES_TILL_ANIM_UPDATE) {
      0003EC 7E                    1043 	ld	a, (hl)
      0003ED D6 01                 1044 	sub	a, #0x01
      0003EF 38 35                 1045 	jr	C, 00104$
                                   1046 ;main.c:201: frame_count = 0;
      0003F1 36 00                 1047 	ld	(hl), #0x00
                                   1048 ;main.c:204: animation_counter++;
      0003F3 21r01r00              1049 	ld	hl, #_animation_counter
      0003F6 34                    1050 	inc	(hl)
                                   1051 ;main.c:205: if (animation_counter >= ANIM_COUNT_TILES){
      0003F7 7E                    1052 	ld	a, (hl)
      0003F8 D6 03                 1053 	sub	a, #0x03
      0003FA 38 02                 1054 	jr	C, 00102$
                                   1055 ;main.c:206: animation_counter = 0;}
      0003FC 36 00                 1056 	ld	(hl), #0x00
      0003FE                       1057 00102$:
                                   1058 ;main.c:209: set_sprite_tile(0, animation_tiles[animation_counter]);
      0003FE 01r12r14              1059 	ld	bc, #_animation_tiles+0
      000401 79                    1060 	ld	a, c
      000402 21r01r00              1061 	ld	hl, #_animation_counter
      000405 86                    1062 	add	a, (hl)
      000406 4F                    1063 	ld	c, a
      000407 30 01                 1064 	jr	NC, 00128$
      000409 04                    1065 	inc	b
      00040A                       1066 00128$:
      00040A 0A                    1067 	ld	a, (bc)
      00040B 4F                    1068 	ld	c, a
                                   1069 ;c:/gbdk/include/gb/gb.h:1447: shadow_OAM[nb].tile=tile;
      00040C 21r02r00              1070 	ld	hl, #(_shadow_OAM + 2)
      00040F 71                    1071 	ld	(hl), c
                                   1072 ;main.c:210: set_sprite_tile(1, animation_tiles2[animation_counter]);
      000410 01r15r14              1073 	ld	bc, #_animation_tiles2+0
      000413 79                    1074 	ld	a, c
      000414 21r01r00              1075 	ld	hl, #_animation_counter
      000417 86                    1076 	add	a, (hl)
      000418 4F                    1077 	ld	c, a
      000419 30 01                 1078 	jr	NC, 00129$
      00041B 04                    1079 	inc	b
      00041C                       1080 00129$:
      00041C 0A                    1081 	ld	a, (bc)
      00041D 4F                    1082 	ld	c, a
                                   1083 ;c:/gbdk/include/gb/gb.h:1447: shadow_OAM[nb].tile=tile;
      00041E 21r06r00              1084 	ld	hl, #(_shadow_OAM + 6)
      000421 71                    1085 	ld	(hl), c
                                   1086 ;main.c:211: tile_anim_count++;
      000422 21r04r00              1087 	ld	hl, #_tile_anim_count
      000425 34                    1088 	inc	(hl)
      000426                       1089 00104$:
                                   1090 ;main.c:213: if(tile_anim_count>=3){
      000426 FAr04r00              1091 	ld	a, (#_tile_anim_count)
      000429 D6 03                 1092 	sub	a, #0x03
      00042B D8                    1093 	ret	C
                                   1094 ;main.c:214: onAnim=0;
      00042C 21r12r00              1095 	ld	hl, #_onAnim
      00042F 36 00                 1096 	ld	(hl), #0x00
                                   1097 ;c:/gbdk/include/gb/gb.h:1447: shadow_OAM[nb].tile=tile;
      000431 21r02r00              1098 	ld	hl, #(_shadow_OAM + 2)
      000434 36 00                 1099 	ld	(hl), #0x00
      000436 21r06r00              1100 	ld	hl, #(_shadow_OAM + 6)
      000439 36 02                 1101 	ld	(hl), #0x02
                                   1102 ;main.c:217: tile_anim_count=0;
      00043B 21r04r00              1103 	ld	hl, #_tile_anim_count
      00043E 36 00                 1104 	ld	(hl), #0x00
                                   1105 ;main.c:220: }
      000440 C9                    1106 	ret
                                   1107 ;main.c:222: void updateEnemyAnim(){
                                   1108 ;	---------------------------------
                                   1109 ; Function updateEnemyAnim
                                   1110 ; ---------------------------------
      000441                       1111 _updateEnemyAnim::
                                   1112 ;main.c:223: e_frame_count++;
      000441 21r0Dr00              1113 	ld	hl, #_e_frame_count
      000444 34                    1114 	inc	(hl)
                                   1115 ;main.c:226: if (e_frame_count >= FRAMES_TILL_ANIM_UPDATE) {
      000445 7E                    1116 	ld	a, (hl)
      000446 D6 01                 1117 	sub	a, #0x01
      000448 D8                    1118 	ret	C
                                   1119 ;main.c:229: e_frame_count = 0;
      000449 36 00                 1120 	ld	(hl), #0x00
                                   1121 ;main.c:232: e_animation_counter++;
      00044B 21r0Er00              1122 	ld	hl, #_e_animation_counter
      00044E 34                    1123 	inc	(hl)
                                   1124 ;main.c:233: if (e_animation_counter >= ENEMY_ANIM_COUNT_TILES){
      00044F 7E                    1125 	ld	a, (hl)
      000450 D6 04                 1126 	sub	a, #0x04
      000452 38 02                 1127 	jr	C, 00102$
                                   1128 ;main.c:234: e_animation_counter = 0;}
      000454 36 00                 1129 	ld	(hl), #0x00
      000456                       1130 00102$:
                                   1131 ;main.c:237: set_sprite_tile(3, e_animation_tiles[e_animation_counter]);
      000456 01r18r14              1132 	ld	bc, #_e_animation_tiles+0
      000459 79                    1133 	ld	a, c
      00045A 21r0Er00              1134 	ld	hl, #_e_animation_counter
      00045D 86                    1135 	add	a, (hl)
      00045E 4F                    1136 	ld	c, a
      00045F 30 01                 1137 	jr	NC, 00119$
      000461 04                    1138 	inc	b
      000462                       1139 00119$:
      000462 0A                    1140 	ld	a, (bc)
      000463 4F                    1141 	ld	c, a
                                   1142 ;c:/gbdk/include/gb/gb.h:1447: shadow_OAM[nb].tile=tile;
      000464 21r0Er00              1143 	ld	hl, #(_shadow_OAM + 14)
      000467 71                    1144 	ld	(hl), c
                                   1145 ;main.c:238: set_sprite_tile(4, e_animation_tiles2[e_animation_counter]);          
      000468 01r1Cr14              1146 	ld	bc, #_e_animation_tiles2+0
      00046B 79                    1147 	ld	a, c
      00046C 21r0Er00              1148 	ld	hl, #_e_animation_counter
      00046F 86                    1149 	add	a, (hl)
      000470 4F                    1150 	ld	c, a
      000471 30 01                 1151 	jr	NC, 00120$
      000473 04                    1152 	inc	b
      000474                       1153 00120$:
      000474 0A                    1154 	ld	a, (bc)
      000475 4F                    1155 	ld	c, a
                                   1156 ;c:/gbdk/include/gb/gb.h:1447: shadow_OAM[nb].tile=tile;
      000476 21r12r00              1157 	ld	hl, #(_shadow_OAM + 18)
      000479 71                    1158 	ld	(hl), c
                                   1159 ;main.c:238: set_sprite_tile(4, e_animation_tiles2[e_animation_counter]);          
                                   1160 ;main.c:241: }
      00047A C9                    1161 	ret
                                   1162 ;main.c:243: void fadeOut(){
                                   1163 ;	---------------------------------
                                   1164 ; Function fadeOut
                                   1165 ; ---------------------------------
      00047B                       1166 _fadeOut::
                                   1167 ;main.c:245: for(i=0; i<4;i++) {
      00047B 21r0Ar00              1168 	ld	hl, #_i
      00047E 36 00                 1169 	ld	(hl), #0x00
      000480                       1170 00108$:
                                   1171 ;main.c:246: switch (i)
      000480 FAr0Ar00              1172 	ld	a, (#_i)
      000483 B7                    1173 	or	a, a
      000484 28 16                 1174 	jr	Z, 00101$
      000486 FAr0Ar00              1175 	ld	a, (#_i)
      000489 3D                    1176 	dec	a
      00048A 28 16                 1177 	jr	Z, 00102$
      00048C FAr0Ar00              1178 	ld	a, (#_i)
      00048F D6 02                 1179 	sub	a, #0x02
      000491 28 15                 1180 	jr	Z, 00103$
      000493 FAr0Ar00              1181 	ld	a, (#_i)
      000496 D6 03                 1182 	sub	a, #0x03
      000498 28 14                 1183 	jr	Z, 00104$
      00049A 18 16                 1184 	jr	00106$
                                   1185 ;main.c:248: case 0:
      00049C                       1186 00101$:
                                   1187 ;main.c:249: BGP_REG = 0xE4;
      00049C 3E E4                 1188 	ld	a, #0xe4
      00049E E0r00                 1189 	ldh	(_BGP_REG + 0), a
                                   1190 ;main.c:250: break;
      0004A0 18 10                 1191 	jr	00106$
                                   1192 ;main.c:251: case 1:
      0004A2                       1193 00102$:
                                   1194 ;main.c:252: BGP_REG = 0xF9;
      0004A2 3E F9                 1195 	ld	a, #0xf9
      0004A4 E0r00                 1196 	ldh	(_BGP_REG + 0), a
                                   1197 ;main.c:253: break;
      0004A6 18 0A                 1198 	jr	00106$
                                   1199 ;main.c:254: case 2:
      0004A8                       1200 00103$:
                                   1201 ;main.c:255: BGP_REG = 0xFE;
      0004A8 3E FE                 1202 	ld	a, #0xfe
      0004AA E0r00                 1203 	ldh	(_BGP_REG + 0), a
                                   1204 ;main.c:256: break;
      0004AC 18 04                 1205 	jr	00106$
                                   1206 ;main.c:257: case 3:
      0004AE                       1207 00104$:
                                   1208 ;main.c:258: BGP_REG = 0xFF;
      0004AE 3E FF                 1209 	ld	a, #0xff
      0004B0 E0r00                 1210 	ldh	(_BGP_REG + 0), a
                                   1211 ;main.c:262: }
      0004B2                       1212 00106$:
                                   1213 ;main.c:263: performtDelay(5);
      0004B2 3E 05                 1214 	ld	a, #0x05
      0004B4 F5                    1215 	push	af
      0004B5 33                    1216 	inc	sp
      0004B6 CDr00r00              1217 	call	_performtDelay
      0004B9 33                    1218 	inc	sp
                                   1219 ;main.c:245: for(i=0; i<4;i++) {
      0004BA 21r0Ar00              1220 	ld	hl, #_i
      0004BD 34                    1221 	inc	(hl)
      0004BE 7E                    1222 	ld	a, (hl)
      0004BF D6 04                 1223 	sub	a, #0x04
      0004C1 38 BD                 1224 	jr	C, 00108$
                                   1225 ;main.c:265: }
      0004C3 C9                    1226 	ret
                                   1227 ;main.c:267: void fadeIn(){
                                   1228 ;	---------------------------------
                                   1229 ; Function fadeIn
                                   1230 ; ---------------------------------
      0004C4                       1231 _fadeIn::
                                   1232 ;main.c:269: for(i=0; i<3;i++) {
      0004C4 21r0Ar00              1233 	ld	hl, #_i
      0004C7 36 00                 1234 	ld	(hl), #0x00
      0004C9                       1235 00106$:
                                   1236 ;main.c:270: switch (i)
      0004C9 FAr0Ar00              1237 	ld	a, (#_i)
      0004CC B7                    1238 	or	a, a
      0004CD 28 0F                 1239 	jr	Z, 00101$
      0004CF FAr0Ar00              1240 	ld	a, (#_i)
      0004D2 3D                    1241 	dec	a
      0004D3 28 0F                 1242 	jr	Z, 00102$
      0004D5 FAr0Ar00              1243 	ld	a, (#_i)
      0004D8 D6 02                 1244 	sub	a, #0x02
      0004DA 28 0E                 1245 	jr	Z, 00103$
      0004DC 18 10                 1246 	jr	00104$
                                   1247 ;main.c:272: case 0:
      0004DE                       1248 00101$:
                                   1249 ;main.c:273: BGP_REG = 0xFE;
      0004DE 3E FE                 1250 	ld	a, #0xfe
      0004E0 E0r00                 1251 	ldh	(_BGP_REG + 0), a
                                   1252 ;main.c:274: break;
      0004E2 18 0A                 1253 	jr	00104$
                                   1254 ;main.c:275: case 1:
      0004E4                       1255 00102$:
                                   1256 ;main.c:276: BGP_REG = 0xF9;
      0004E4 3E F9                 1257 	ld	a, #0xf9
      0004E6 E0r00                 1258 	ldh	(_BGP_REG + 0), a
                                   1259 ;main.c:277: break;
      0004E8 18 04                 1260 	jr	00104$
                                   1261 ;main.c:278: case 2:
      0004EA                       1262 00103$:
                                   1263 ;main.c:279: BGP_REG = 0xE4;
      0004EA 3E E4                 1264 	ld	a, #0xe4
      0004EC E0r00                 1265 	ldh	(_BGP_REG + 0), a
                                   1266 ;main.c:281: }
      0004EE                       1267 00104$:
                                   1268 ;main.c:282: performtDelay(5);
      0004EE 3E 05                 1269 	ld	a, #0x05
      0004F0 F5                    1270 	push	af
      0004F1 33                    1271 	inc	sp
      0004F2 CDr00r00              1272 	call	_performtDelay
      0004F5 33                    1273 	inc	sp
                                   1274 ;main.c:269: for(i=0; i<3;i++) {
      0004F6 21r0Ar00              1275 	ld	hl, #_i
      0004F9 34                    1276 	inc	(hl)
      0004FA 7E                    1277 	ld	a, (hl)
      0004FB D6 03                 1278 	sub	a, #0x03
      0004FD 38 CA                 1279 	jr	C, 00106$
                                   1280 ;main.c:284: }
      0004FF C9                    1281 	ret
                                   1282 ;main.c:286: void loadNewBackGround(unsigned char *newMap){
                                   1283 ;	---------------------------------
                                   1284 ; Function loadNewBackGround
                                   1285 ; ---------------------------------
      000500                       1286 _loadNewBackGround::
                                   1287 ;main.c:287: HIDE_SPRITES;
      000500 F0r00                 1288 	ldh	a, (_LCDC_REG + 0)
      000502 E6 FD                 1289 	and	a, #0xfd
      000504 E0r00                 1290 	ldh	(_LCDC_REG + 0), a
                                   1291 ;main.c:288: fadeOut(); 
      000506 CDr7Br04              1292 	call	_fadeOut
                                   1293 ;main.c:289: HIDE_BKG;
      000509 F0r00                 1294 	ldh	a, (_LCDC_REG + 0)
      00050B E6 FE                 1295 	and	a, #0xfe
      00050D E0r00                 1296 	ldh	(_LCDC_REG + 0), a
                                   1297 ;main.c:290: pPosX=4;
      00050F 21r02r00              1298 	ld	hl, #_pPosX
      000512 36 04                 1299 	ld	(hl), #0x04
                                   1300 ;main.c:291: pPosY=120;
      000514 21r03r00              1301 	ld	hl, #_pPosY
      000517 36 78                 1302 	ld	(hl), #0x78
                                   1303 ;main.c:292: scrollAviable=1;
      000519 21r02r14              1304 	ld	hl, #_scrollAviable
      00051C 36 01                 1305 	ld	(hl), #0x01
                                   1306 ;main.c:293: set_bkg_tiles(0,0,40,18,newMap);
      00051E F8 02                 1307 	ldhl	sp,	#2
      000520 2A                    1308 	ld	a, (hl+)
      000521 5F                    1309 	ld	e, a
      000522 56                    1310 	ld	d, (hl)
      000523 D5                    1311 	push	de
      000524 21 28 12              1312 	ld	hl, #0x1228
      000527 E5                    1313 	push	hl
      000528 AF                    1314 	xor	a, a
      000529 0F                    1315 	rrca
      00052A F5                    1316 	push	af
      00052B CDr00r00              1317 	call	_set_bkg_tiles
      00052E E8 06                 1318 	add	sp, #6
                                   1319 ;main.c:294: move_sprite(0,pPosX,pPosY);
      000530 21r03r00              1320 	ld	hl, #_pPosY
      000533 46                    1321 	ld	b, (hl)
      000534 21r02r00              1322 	ld	hl, #_pPosX
      000537 4E                    1323 	ld	c, (hl)
                                   1324 ;c:/gbdk/include/gb/gb.h:1520: OAM_item_t * itm = &shadow_OAM[nb];
      000538 21r00r00              1325 	ld	hl, #_shadow_OAM
                                   1326 ;c:/gbdk/include/gb/gb.h:1521: itm->y=y, itm->x=x;
      00053B 78                    1327 	ld	a, b
      00053C 22                    1328 	ld	(hl+), a
      00053D 71                    1329 	ld	(hl), c
                                   1330 ;main.c:295: move_sprite(1,pPosX+offset,pPosY);
      00053E 21r03r00              1331 	ld	hl, #_pPosY
      000541 46                    1332 	ld	b, (hl)
      000542 FAr02r00              1333 	ld	a, (#_pPosX)
      000545 21r00r14              1334 	ld	hl, #_offset
      000548 86                    1335 	add	a, (hl)
      000549 4F                    1336 	ld	c, a
                                   1337 ;c:/gbdk/include/gb/gb.h:1520: OAM_item_t * itm = &shadow_OAM[nb];
      00054A 21r04r00              1338 	ld	hl, #(_shadow_OAM + 4)
                                   1339 ;c:/gbdk/include/gb/gb.h:1521: itm->y=y, itm->x=x;
      00054D 78                    1340 	ld	a, b
      00054E 22                    1341 	ld	(hl+), a
      00054F 71                    1342 	ld	(hl), c
                                   1343 ;main.c:296: move_sprite(2,pPosX+offset,pPosY);
      000550 21r03r00              1344 	ld	hl, #_pPosY
      000553 46                    1345 	ld	b, (hl)
      000554 FAr02r00              1346 	ld	a, (#_pPosX)
      000557 21r00r14              1347 	ld	hl, #_offset
      00055A 86                    1348 	add	a, (hl)
      00055B 4F                    1349 	ld	c, a
                                   1350 ;c:/gbdk/include/gb/gb.h:1520: OAM_item_t * itm = &shadow_OAM[nb];
      00055C 21r08r00              1351 	ld	hl, #(_shadow_OAM + 8)
                                   1352 ;c:/gbdk/include/gb/gb.h:1521: itm->y=y, itm->x=x;
      00055F 78                    1353 	ld	a, b
      000560 22                    1354 	ld	(hl+), a
      000561 71                    1355 	ld	(hl), c
                                   1356 ;main.c:297: SHOW_BKG;
      000562 F0r00                 1357 	ldh	a, (_LCDC_REG + 0)
      000564 F6 01                 1358 	or	a, #0x01
      000566 E0r00                 1359 	ldh	(_LCDC_REG + 0), a
                                   1360 ;main.c:298: fadeIn();
      000568 CDrC4r04              1361 	call	_fadeIn
                                   1362 ;main.c:299: SHOW_SPRITES;
      00056B F0r00                 1363 	ldh	a, (_LCDC_REG + 0)
      00056D F6 02                 1364 	or	a, #0x02
      00056F E0r00                 1365 	ldh	(_LCDC_REG + 0), a
                                   1366 ;main.c:300: }
      000571 C9                    1367 	ret
                                   1368 ;main.c:302: void actualMap(unsigned char *Map){
                                   1369 ;	---------------------------------
                                   1370 ; Function actualMap
                                   1371 ; ---------------------------------
      000572                       1372 _actualMap::
                                   1373 ;main.c:303: if(Map == interior_map){
      000572 F8 02                 1374 	ldhl	sp,	#2
      000574 7E                    1375 	ld	a, (hl)
      000575 D6r88                 1376 	sub	a, #<(_interior_map)
      000577 20 3A                 1377 	jr	NZ, 00102$
      000579 23                    1378 	inc	hl
      00057A 7E                    1379 	ld	a, (hl)
      00057B D6s0C                 1380 	sub	a, #>(_interior_map)
      00057D 20 34                 1381 	jr	NZ, 00102$
                                   1382 ;main.c:304: setSprite(3,4,28,30,ePosX,ePosY);
      00057F FAr09r00              1383 	ld	a, (#_ePosY)
      000582 F5                    1384 	push	af
      000583 33                    1385 	inc	sp
      000584 FAr08r00              1386 	ld	a, (#_ePosX)
      000587 67                    1387 	ld	h, a
      000588 2E 1E                 1388 	ld	l, #0x1e
      00058A E5                    1389 	push	hl
      00058B 21 04 1C              1390 	ld	hl, #0x1c04
      00058E E5                    1391 	push	hl
      00058F 3E 03                 1392 	ld	a, #0x03
      000591 F5                    1393 	push	af
      000592 33                    1394 	inc	sp
      000593 CDr8Cr03              1395 	call	_setSprite
      000596 E8 06                 1396 	add	sp, #6
                                   1397 ;main.c:305: enemySet=1;
      000598 21r03r14              1398 	ld	hl, #_enemySet
      00059B 36 01                 1399 	ld	(hl), #0x01
                                   1400 ;main.c:306: backGroundCollision(pPosX+4,pPosY,interior_map);
      00059D 01r88r0C              1401 	ld	bc, #_interior_map
      0005A0 FAr02r00              1402 	ld	a, (#_pPosX)
      0005A3 C6 04                 1403 	add	a, #0x04
      0005A5 C5                    1404 	push	bc
      0005A6 21r03r00              1405 	ld	hl, #_pPosY
      0005A9 66                    1406 	ld	h, (hl)
                                   1407 ;	spillPairReg hl
                                   1408 ;	spillPairReg hl
      0005AA E5                    1409 	push	hl
      0005AB 33                    1410 	inc	sp
      0005AC F5                    1411 	push	af
      0005AD 33                    1412 	inc	sp
      0005AE CDr16r00              1413 	call	_backGroundCollision
      0005B1 E8 04                 1414 	add	sp, #4
      0005B3                       1415 00102$:
                                   1416 ;main.c:308: if(Map == church_map){
      0005B3 F8 02                 1417 	ldhl	sp,	#2
      0005B5 7E                    1418 	ld	a, (hl)
      0005B6 D6r70                 1419 	sub	a, #<(_church_map)
      0005B8 C0                    1420 	ret	NZ
      0005B9 23                    1421 	inc	hl
      0005BA 7E                    1422 	ld	a, (hl)
      0005BB D6s04                 1423 	sub	a, #>(_church_map)
      0005BD C0                    1424 	ret	NZ
                                   1425 ;main.c:309: backGroundCollision(pPosX+4,pPosY,church_map);
      0005BE 01r70r04              1426 	ld	bc, #_church_map
      0005C1 FAr02r00              1427 	ld	a, (#_pPosX)
      0005C4 C6 04                 1428 	add	a, #0x04
      0005C6 C5                    1429 	push	bc
      0005C7 21r03r00              1430 	ld	hl, #_pPosY
      0005CA 66                    1431 	ld	h, (hl)
                                   1432 ;	spillPairReg hl
                                   1433 ;	spillPairReg hl
      0005CB E5                    1434 	push	hl
      0005CC 33                    1435 	inc	sp
      0005CD F5                    1436 	push	af
      0005CE 33                    1437 	inc	sp
      0005CF CDr16r00              1438 	call	_backGroundCollision
      0005D2 E8 04                 1439 	add	sp, #4
                                   1440 ;main.c:311: }
      0005D4 C9                    1441 	ret
                                   1442 ;main.c:313: void loadDialogue(unsigned char *diag){    
                                   1443 ;	---------------------------------
                                   1444 ; Function loadDialogue
                                   1445 ; ---------------------------------
      0005D5                       1446 _loadDialogue::
                                   1447 ;main.c:314: SHOW_WIN;
      0005D5 F0r00                 1448 	ldh	a, (_LCDC_REG + 0)
      0005D7 F6 20                 1449 	or	a, #0x20
      0005D9 E0r00                 1450 	ldh	(_LCDC_REG + 0), a
                                   1451 ;c:/gbdk/include/gb/gb.h:1316: WX_REG=x, WY_REG=y;
      0005DB 3E 07                 1452 	ld	a, #0x07
      0005DD E0r00                 1453 	ldh	(_WX_REG + 0), a
      0005DF 3E 78                 1454 	ld	a, #0x78
      0005E1 E0r00                 1455 	ldh	(_WY_REG + 0), a
                                   1456 ;main.c:316: set_win_tiles(0,0,20,3,diag);
      0005E3 F8 02                 1457 	ldhl	sp,	#2
      0005E5 2A                    1458 	ld	a, (hl+)
      0005E6 5F                    1459 	ld	e, a
      0005E7 56                    1460 	ld	d, (hl)
      0005E8 D5                    1461 	push	de
      0005E9 21 14 03              1462 	ld	hl, #0x314
      0005EC E5                    1463 	push	hl
      0005ED AF                    1464 	xor	a, a
      0005EE 0F                    1465 	rrca
      0005EF F5                    1466 	push	af
      0005F0 CDr00r00              1467 	call	_set_win_tiles
      0005F3 E8 06                 1468 	add	sp, #6
                                   1469 ;main.c:317: waitpad(J_A);
      0005F5 3E 10                 1470 	ld	a, #0x10
      0005F7 F5                    1471 	push	af
      0005F8 33                    1472 	inc	sp
      0005F9 CDr00r00              1473 	call	_waitpad
      0005FC 33                    1474 	inc	sp
                                   1475 ;main.c:318: HIDE_WIN;
      0005FD F0r00                 1476 	ldh	a, (_LCDC_REG + 0)
      0005FF E6 DF                 1477 	and	a, #0xdf
      000601 E0r00                 1478 	ldh	(_LCDC_REG + 0), a
                                   1479 ;main.c:319: }
      000603 C9                    1480 	ret
                                   1481 ;main.c:321: void setWindowStat(unsigned char *stat){
                                   1482 ;	---------------------------------
                                   1483 ; Function setWindowStat
                                   1484 ; ---------------------------------
      000604                       1485 _setWindowStat::
                                   1486 ;main.c:322: SHOW_WIN;
      000604 F0r00                 1487 	ldh	a, (_LCDC_REG + 0)
      000606 F6 20                 1488 	or	a, #0x20
      000608 E0r00                 1489 	ldh	(_LCDC_REG + 0), a
                                   1490 ;main.c:323: set_win_tiles(0,0,20,3,stat);
      00060A F8 02                 1491 	ldhl	sp,	#2
      00060C 2A                    1492 	ld	a, (hl+)
      00060D 5F                    1493 	ld	e, a
      00060E 56                    1494 	ld	d, (hl)
      00060F D5                    1495 	push	de
      000610 21 14 03              1496 	ld	hl, #0x314
      000613 E5                    1497 	push	hl
      000614 AF                    1498 	xor	a, a
      000615 0F                    1499 	rrca
      000616 F5                    1500 	push	af
      000617 CDr00r00              1501 	call	_set_win_tiles
      00061A E8 06                 1502 	add	sp, #6
                                   1503 ;c:/gbdk/include/gb/gb.h:1316: WX_REG=x, WY_REG=y;
      00061C 3E 07                 1504 	ld	a, #0x07
      00061E E0r00                 1505 	ldh	(_WX_REG + 0), a
      000620 3E 88                 1506 	ld	a, #0x88
      000622 E0r00                 1507 	ldh	(_WY_REG + 0), a
                                   1508 ;main.c:324: move_win(7,136);
                                   1509 ;main.c:325: }
      000624 C9                    1510 	ret
                                   1511 ;main.c:355: void main(){
                                   1512 ;	---------------------------------
                                   1513 ; Function main
                                   1514 ; ---------------------------------
      000625                       1515 _main::
                                   1516 ;main.c:357: NR52_REG= 0x80;
      000625 3E 80                 1517 	ld	a, #0x80
      000627 E0r00                 1518 	ldh	(_NR52_REG + 0), a
                                   1519 ;main.c:358: NR50_REG = 0x77;
      000629 3E 77                 1520 	ld	a, #0x77
      00062B E0r00                 1521 	ldh	(_NR50_REG + 0), a
                                   1522 ;main.c:359: NR51_REG = 0xFF;
      00062D 3E FF                 1523 	ld	a, #0xff
      00062F E0r00                 1524 	ldh	(_NR51_REG + 0), a
                                   1525 ;main.c:361: pPosX= 4;
      000631 21r02r00              1526 	ld	hl, #_pPosX
      000634 36 04                 1527 	ld	(hl), #0x04
                                   1528 ;main.c:362: pPosY= 120;
      000636 21r03r00              1529 	ld	hl, #_pPosY
      000639 36 78                 1530 	ld	(hl), #0x78
                                   1531 ;main.c:363: ePosX = 140;
      00063B 21r08r00              1532 	ld	hl, #_ePosX
      00063E 36 8C                 1533 	ld	(hl), #0x8c
                                   1534 ;main.c:364: ePosY = pPosY;
      000640 21r09r00              1535 	ld	hl, #_ePosY
      000643 36 78                 1536 	ld	(hl), #0x78
                                   1537 ;main.c:365: frame = 0;
      000645 21r01r14              1538 	ld	hl, #_frame
      000648 36 00                 1539 	ld	(hl), #0x00
                                   1540 ;main.c:366: floorPosition=120;
      00064A 21r07r00              1541 	ld	hl, #_floorPosition
      00064D 36 78                 1542 	ld	(hl), #0x78
                                   1543 ;main.c:367: animation_counter = 0;
      00064F 21r01r00              1544 	ld	hl, #_animation_counter
      000652 36 00                 1545 	ld	(hl), #0x00
                                   1546 ;main.c:368: e_animation_counter = 0;
      000654 21r0Er00              1547 	ld	hl, #_e_animation_counter
      000657 36 00                 1548 	ld	(hl), #0x00
                                   1549 ;main.c:369: dCounter = 0;
      000659 21r0Cr00              1550 	ld	hl, #_dCounter
      00065C 36 00                 1551 	ld	(hl), #0x00
                                   1552 ;main.c:370: downPCounter=0;
      00065E 21r10r00              1553 	ld	hl, #_downPCounter
      000661 36 00                 1554 	ld	(hl), #0x00
                                   1555 ;main.c:371: sCounter=1;
      000663 21r0Fr00              1556 	ld	hl, #_sCounter
      000666 36 01                 1557 	ld	(hl), #0x01
                                   1558 ;main.c:372: jumpAllow=1;
      000668 21r14r00              1559 	ld	hl, #_jumpAllow
      00066B 36 01                 1560 	ld	(hl), #0x01
                                   1561 ;main.c:373: faceing=1;
      00066D 21r13r00              1562 	ld	hl, #_faceing
      000670 36 01                 1563 	ld	(hl), #0x01
                                   1564 ;main.c:374: reDash=0;
      000672 21r16r00              1565 	ld	hl, #_reDash
      000675 36 00                 1566 	ld	(hl), #0x00
                                   1567 ;main.c:375: dashCoolDown=0;
      000677 21r11r00              1568 	ld	hl, #_dashCoolDown
      00067A 36 00                 1569 	ld	(hl), #0x00
                                   1570 ;main.c:376: dashAviable=1;
      00067C 21r15r00              1571 	ld	hl, #_dashAviable
      00067F 36 01                 1572 	ld	(hl), #0x01
                                   1573 ;main.c:378: set_bkg_data(72,115,interior_tiles);
      000681 11rD8r09              1574 	ld	de, #_interior_tiles
      000684 D5                    1575 	push	de
      000685 21 48 73              1576 	ld	hl, #0x7348
      000688 E5                    1577 	push	hl
      000689 CDr00r00              1578 	call	_set_bkg_data
      00068C E8 04                 1579 	add	sp, #4
                                   1580 ;main.c:379: set_win_data(116,164,r_portrait_tile);
      00068E 11r58r0F              1581 	ld	de, #_r_portrait_tile
      000691 D5                    1582 	push	de
      000692 21 74 A4              1583 	ld	hl, #0xa474
      000695 E5                    1584 	push	hl
      000696 CDr00r00              1585 	call	_set_win_data
      000699 E8 04                 1586 	add	sp, #4
                                   1587 ;main.c:380: set_bkg_data(0,71,tiles_church);
      00069B 11r00r00              1588 	ld	de, #_tiles_church
      00069E D5                    1589 	push	de
      00069F 21 00 47              1590 	ld	hl, #0x4700
      0006A2 E5                    1591 	push	hl
      0006A3 CDr00r00              1592 	call	_set_bkg_data
      0006A6 E8 04                 1593 	add	sp, #4
                                   1594 ;main.c:381: set_bkg_tiles(0,0,20,18,church_map);
      0006A8 11r70r04              1595 	ld	de, #_church_map
      0006AB D5                    1596 	push	de
      0006AC 21 14 12              1597 	ld	hl, #0x1214
      0006AF E5                    1598 	push	hl
      0006B0 AF                    1599 	xor	a, a
      0006B1 0F                    1600 	rrca
      0006B2 F5                    1601 	push	af
      0006B3 CDr00r00              1602 	call	_set_bkg_tiles
      0006B6 E8 06                 1603 	add	sp, #6
                                   1604 ;main.c:383: SHOW_BKG;
      0006B8 F0r00                 1605 	ldh	a, (_LCDC_REG + 0)
      0006BA F6 01                 1606 	or	a, #0x01
      0006BC E0r00                 1607 	ldh	(_LCDC_REG + 0), a
                                   1608 ;main.c:385: SPRITES_8x16;
      0006BE F0r00                 1609 	ldh	a, (_LCDC_REG + 0)
      0006C0 F6 04                 1610 	or	a, #0x04
      0006C2 E0r00                 1611 	ldh	(_LCDC_REG + 0), a
                                   1612 ;main.c:386: set_sprite_data(0,64,sprites);
      0006C4 11rD8r05              1613 	ld	de, #_sprites
      0006C7 D5                    1614 	push	de
      0006C8 21 00 40              1615 	ld	hl, #0x4000
      0006CB E5                    1616 	push	hl
      0006CC CDr00r00              1617 	call	_set_sprite_data
      0006CF E8 04                 1618 	add	sp, #4
                                   1619 ;main.c:387: setSprite(0,1,0,2,pPosX,pPosY);//Heroine
      0006D1 FAr03r00              1620 	ld	a, (#_pPosY)
      0006D4 F5                    1621 	push	af
      0006D5 33                    1622 	inc	sp
      0006D6 FAr02r00              1623 	ld	a, (#_pPosX)
      0006D9 67                    1624 	ld	h, a
      0006DA 2E 02                 1625 	ld	l, #0x02
      0006DC E5                    1626 	push	hl
      0006DD 21 01 00              1627 	ld	hl, #0x01
      0006E0 E5                    1628 	push	hl
      0006E1 AF                    1629 	xor	a, a
      0006E2 F5                    1630 	push	af
      0006E3 33                    1631 	inc	sp
      0006E4 CDr8Cr03              1632 	call	_setSprite
      0006E7 E8 06                 1633 	add	sp, #6
                                   1634 ;c:/gbdk/include/gb/gb.h:1447: shadow_OAM[nb].tile=tile;
      0006E9 21r0Ar00              1635 	ld	hl, #(_shadow_OAM + 10)
      0006EC 36 14                 1636 	ld	(hl), #0x14
                                   1637 ;main.c:390: SHOW_SPRITES;
      0006EE F0r00                 1638 	ldh	a, (_LCDC_REG + 0)
      0006F0 F6 02                 1639 	or	a, #0x02
      0006F2 E0r00                 1640 	ldh	(_LCDC_REG + 0), a
                                   1641 ;main.c:392: loadDialogue(w_dialogue_001);
      0006F4 11r98r12              1642 	ld	de, #_w_dialogue_001
      0006F7 D5                    1643 	push	de
      0006F8 CDrD5r05              1644 	call	_loadDialogue
      0006FB E1                    1645 	pop	hl
                                   1646 ;main.c:393: setWindowStat(r_stat_001);
      0006FC 11r4Cr13              1647 	ld	de, #_r_stat_001
      0006FF D5                    1648 	push	de
      000700 CDr04r06              1649 	call	_setWindowStat
      000703 E1                    1650 	pop	hl
                                   1651 ;main.c:395: while(1){
      000704                       1652 00165$:
                                   1653 ;main.c:396: if(joypad() & J_RIGHT){
      000704 CDr00r00              1654 	call	_joypad
      000707 7B                    1655 	ld	a, e
      000708 0F                    1656 	rrca
      000709 30 6D                 1657 	jr	NC, 00105$
                                   1658 ;main.c:397: if(dashAviable==1 || carryRow==1){
      00070B FAr15r00              1659 	ld	a, (#_dashAviable)
      00070E 3D                    1660 	dec	a
      00070F 28 06                 1661 	jr	Z, 00101$
      000711 FAr17r00              1662 	ld	a, (#_carryRow)
      000714 3D                    1663 	dec	a
      000715 20 61                 1664 	jr	NZ, 00105$
      000717                       1665 00101$:
                                   1666 ;main.c:398: pPosX+=2;
      000717 21r02r00              1667 	ld	hl, #_pPosX
      00071A 7E                    1668 	ld	a, (hl)
      00071B C6 02                 1669 	add	a, #0x02
      00071D 77                    1670 	ld	(hl), a
                                   1671 ;c:/gbdk/include/gb/gb.h:1503: return shadow_OAM[nb].prop;
      00071E FAr03r00              1672 	ld	a, (#(_shadow_OAM + 3) + 0)
                                   1673 ;main.c:399: set_sprite_prop(0,get_sprite_prop(0) & ~S_FLIPX);
      000721 4F                    1674 	ld	c, a
      000722 CB A9                 1675 	res	5, c
                                   1676 ;c:/gbdk/include/gb/gb.h:1493: shadow_OAM[nb].prop=prop;
      000724 21r03r00              1677 	ld	hl, #(_shadow_OAM + 3)
      000727 71                    1678 	ld	(hl), c
                                   1679 ;c:/gbdk/include/gb/gb.h:1503: return shadow_OAM[nb].prop;
      000728 FAr07r00              1680 	ld	a, (#(_shadow_OAM + 7) + 0)
                                   1681 ;main.c:400: set_sprite_prop(1,get_sprite_prop(1) & ~S_FLIPX);
      00072B 4F                    1682 	ld	c, a
      00072C CB A9                 1683 	res	5, c
                                   1684 ;c:/gbdk/include/gb/gb.h:1493: shadow_OAM[nb].prop=prop;
      00072E 21r07r00              1685 	ld	hl, #(_shadow_OAM + 7)
      000731 71                    1686 	ld	(hl), c
                                   1687 ;c:/gbdk/include/gb/gb.h:1503: return shadow_OAM[nb].prop;
      000732 FAr0Br00              1688 	ld	a, (#(_shadow_OAM + 11) + 0)
                                   1689 ;main.c:401: set_sprite_prop(2,get_sprite_prop(2) & ~S_FLIPX);
      000735 4F                    1690 	ld	c, a
      000736 CB A9                 1691 	res	5, c
                                   1692 ;c:/gbdk/include/gb/gb.h:1493: shadow_OAM[nb].prop=prop;
      000738 21r0Br00              1693 	ld	hl, #(_shadow_OAM + 11)
      00073B 71                    1694 	ld	(hl), c
                                   1695 ;main.c:403: move_sprite(0,pPosX,pPosY);
      00073C 21r03r00              1696 	ld	hl, #_pPosY
      00073F 46                    1697 	ld	b, (hl)
      000740 21r02r00              1698 	ld	hl, #_pPosX
      000743 4E                    1699 	ld	c, (hl)
                                   1700 ;c:/gbdk/include/gb/gb.h:1520: OAM_item_t * itm = &shadow_OAM[nb];
      000744 21r00r00              1701 	ld	hl, #_shadow_OAM
                                   1702 ;c:/gbdk/include/gb/gb.h:1521: itm->y=y, itm->x=x;
      000747 78                    1703 	ld	a, b
      000748 22                    1704 	ld	(hl+), a
      000749 71                    1705 	ld	(hl), c
                                   1706 ;main.c:404: move_sprite(1,pPosX+offset,pPosY);
      00074A 21r03r00              1707 	ld	hl, #_pPosY
      00074D 46                    1708 	ld	b, (hl)
      00074E FAr02r00              1709 	ld	a, (#_pPosX)
      000751 21r00r14              1710 	ld	hl, #_offset
      000754 86                    1711 	add	a, (hl)
      000755 4F                    1712 	ld	c, a
                                   1713 ;c:/gbdk/include/gb/gb.h:1520: OAM_item_t * itm = &shadow_OAM[nb];
      000756 21r04r00              1714 	ld	hl, #(_shadow_OAM + 4)
                                   1715 ;c:/gbdk/include/gb/gb.h:1521: itm->y=y, itm->x=x;
      000759 78                    1716 	ld	a, b
      00075A 22                    1717 	ld	(hl+), a
      00075B 71                    1718 	ld	(hl), c
                                   1719 ;main.c:405: move_sprite(2,pPosX+offset,pPosY);
      00075C 21r03r00              1720 	ld	hl, #_pPosY
      00075F 46                    1721 	ld	b, (hl)
      000760 FAr02r00              1722 	ld	a, (#_pPosX)
      000763 21r00r14              1723 	ld	hl, #_offset
      000766 86                    1724 	add	a, (hl)
      000767 4F                    1725 	ld	c, a
                                   1726 ;c:/gbdk/include/gb/gb.h:1520: OAM_item_t * itm = &shadow_OAM[nb];
      000768 21r08r00              1727 	ld	hl, #(_shadow_OAM + 8)
                                   1728 ;c:/gbdk/include/gb/gb.h:1521: itm->y=y, itm->x=x;
      00076B 78                    1729 	ld	a, b
      00076C 22                    1730 	ld	(hl+), a
      00076D 71                    1731 	ld	(hl), c
                                   1732 ;main.c:406: onAnim=1;
      00076E 21r12r00              1733 	ld	hl, #_onAnim
      000771 36 01                 1734 	ld	(hl), #0x01
                                   1735 ;main.c:407: faceing=1;
      000773 21r13r00              1736 	ld	hl, #_faceing
      000776 36 01                 1737 	ld	(hl), #0x01
      000778                       1738 00105$:
                                   1739 ;main.c:410: if(joypad() & J_LEFT){
      000778 CDr00r00              1740 	call	_joypad
      00077B CB 4B                 1741 	bit	1, e
      00077D 28 5A                 1742 	jr	Z, 00110$
                                   1743 ;main.c:411: if(dashAviable==1 || carryRow==1){
      00077F FAr15r00              1744 	ld	a, (#_dashAviable)
      000782 3D                    1745 	dec	a
      000783 28 06                 1746 	jr	Z, 00106$
      000785 FAr17r00              1747 	ld	a, (#_carryRow)
      000788 3D                    1748 	dec	a
      000789 20 4E                 1749 	jr	NZ, 00110$
      00078B                       1750 00106$:
                                   1751 ;main.c:412: pPosX-=2;
      00078B 21r02r00              1752 	ld	hl, #_pPosX
      00078E 7E                    1753 	ld	a, (hl)
      00078F C6 FE                 1754 	add	a, #0xfe
      000791 77                    1755 	ld	(hl), a
                                   1756 ;c:/gbdk/include/gb/gb.h:1493: shadow_OAM[nb].prop=prop;
      000792 21r03r00              1757 	ld	hl, #(_shadow_OAM + 3)
      000795 36 20                 1758 	ld	(hl), #0x20
      000797 21r07r00              1759 	ld	hl, #(_shadow_OAM + 7)
      00079A 36 20                 1760 	ld	(hl), #0x20
      00079C 21r0Br00              1761 	ld	hl, #(_shadow_OAM + 11)
      00079F 36 20                 1762 	ld	(hl), #0x20
                                   1763 ;main.c:417: move_sprite(0,pPosX+offset,pPosY);
      0007A1 21r03r00              1764 	ld	hl, #_pPosY
      0007A4 46                    1765 	ld	b, (hl)
      0007A5 FAr02r00              1766 	ld	a, (#_pPosX)
      0007A8 21r00r14              1767 	ld	hl, #_offset
      0007AB 86                    1768 	add	a, (hl)
      0007AC 4F                    1769 	ld	c, a
                                   1770 ;c:/gbdk/include/gb/gb.h:1520: OAM_item_t * itm = &shadow_OAM[nb];
      0007AD 21r00r00              1771 	ld	hl, #_shadow_OAM
                                   1772 ;c:/gbdk/include/gb/gb.h:1521: itm->y=y, itm->x=x;
      0007B0 78                    1773 	ld	a, b
      0007B1 22                    1774 	ld	(hl+), a
      0007B2 71                    1775 	ld	(hl), c
                                   1776 ;main.c:418: move_sprite(1,pPosX,pPosY);
      0007B3 21r03r00              1777 	ld	hl, #_pPosY
      0007B6 46                    1778 	ld	b, (hl)
      0007B7 21r02r00              1779 	ld	hl, #_pPosX
      0007BA 4E                    1780 	ld	c, (hl)
                                   1781 ;c:/gbdk/include/gb/gb.h:1520: OAM_item_t * itm = &shadow_OAM[nb];
      0007BB 21r04r00              1782 	ld	hl, #(_shadow_OAM + 4)
                                   1783 ;c:/gbdk/include/gb/gb.h:1521: itm->y=y, itm->x=x;
      0007BE 78                    1784 	ld	a, b
      0007BF 22                    1785 	ld	(hl+), a
      0007C0 71                    1786 	ld	(hl), c
                                   1787 ;main.c:419: move_sprite(2,pPosX,pPosY);
      0007C1 21r03r00              1788 	ld	hl, #_pPosY
      0007C4 46                    1789 	ld	b, (hl)
      0007C5 21r02r00              1790 	ld	hl, #_pPosX
      0007C8 4E                    1791 	ld	c, (hl)
                                   1792 ;c:/gbdk/include/gb/gb.h:1520: OAM_item_t * itm = &shadow_OAM[nb];
      0007C9 21r08r00              1793 	ld	hl, #(_shadow_OAM + 8)
                                   1794 ;c:/gbdk/include/gb/gb.h:1521: itm->y=y, itm->x=x;
      0007CC 78                    1795 	ld	a, b
      0007CD 22                    1796 	ld	(hl+), a
      0007CE 71                    1797 	ld	(hl), c
                                   1798 ;main.c:421: onAnim=1;
      0007CF 21r12r00              1799 	ld	hl, #_onAnim
      0007D2 36 01                 1800 	ld	(hl), #0x01
                                   1801 ;main.c:422: faceing=0;
      0007D4 21r13r00              1802 	ld	hl, #_faceing
      0007D7 36 00                 1803 	ld	(hl), #0x00
      0007D9                       1804 00110$:
                                   1805 ;main.c:425: if((joypad() & J_A) || jumpAllow==0){
      0007D9 CDr00r00              1806 	call	_joypad
      0007DC CB 63                 1807 	bit	4, e
      0007DE 20 06                 1808 	jr	NZ, 00111$
      0007E0 FAr14r00              1809 	ld	a, (#_jumpAllow)
      0007E3 B7                    1810 	or	a, a
      0007E4 20 08                 1811 	jr	NZ, 00112$
      0007E6                       1812 00111$:
                                   1813 ;main.c:426: onAnim=0;
      0007E6 21r12r00              1814 	ld	hl, #_onAnim
      0007E9 36 00                 1815 	ld	(hl), #0x00
                                   1816 ;main.c:427: jump();
      0007EB CDrE1r00              1817 	call	_jump
      0007EE                       1818 00112$:
                                   1819 ;main.c:429: if((joypad() & J_B)){
      0007EE CDr00r00              1820 	call	_joypad
      0007F1 CB 6B                 1821 	bit	5, e
      0007F3 28 16                 1822 	jr	Z, 00117$
                                   1823 ;main.c:430: if(sCounter==0){
      0007F5 FAr0Fr00              1824 	ld	a, (#_sCounter)
      0007F8 B7                    1825 	or	a, a
      0007F9 20 10                 1826 	jr	NZ, 00117$
                                   1827 ;main.c:431: NR41_REG = 0x1B;
      0007FB 3E 1B                 1828 	ld	a, #0x1b
      0007FD E0r00                 1829 	ldh	(_NR41_REG + 0), a
                                   1830 ;main.c:432: NR42_REG = 0x81;
      0007FF 3E 81                 1831 	ld	a, #0x81
      000801 E0r00                 1832 	ldh	(_NR42_REG + 0), a
                                   1833 ;main.c:433: NR43_REG = 0x68;
      000803 3E 68                 1834 	ld	a, #0x68
      000805 E0r00                 1835 	ldh	(_NR43_REG + 0), a
                                   1836 ;main.c:434: NR44_REG = 0xC0;
      000807 3E C0                 1837 	ld	a, #0xc0
      000809 E0r00                 1838 	ldh	(_NR44_REG + 0), a
      00080B                       1839 00117$:
                                   1840 ;main.c:438: if(joypad() & J_UP){//Utilizado para entrar a puertasa
      00080B CDr00r00              1841 	call	_joypad
      00080E CB 53                 1842 	bit	2, e
      000810 28 32                 1843 	jr	Z, 00121$
                                   1844 ;main.c:439: if(backGroundCollision(pPosX+4,pPosY,church_map)){
      000812 01r70r04              1845 	ld	bc, #_church_map
      000815 FAr02r00              1846 	ld	a, (#_pPosX)
      000818 C6 04                 1847 	add	a, #0x04
      00081A C5                    1848 	push	bc
      00081B 21r03r00              1849 	ld	hl, #_pPosY
      00081E 66                    1850 	ld	h, (hl)
                                   1851 ;	spillPairReg hl
                                   1852 ;	spillPairReg hl
      00081F E5                    1853 	push	hl
      000820 33                    1854 	inc	sp
      000821 F5                    1855 	push	af
      000822 33                    1856 	inc	sp
      000823 CDr16r00              1857 	call	_backGroundCollision
      000826 E8 04                 1858 	add	sp, #4
      000828 7B                    1859 	ld	a, e
      000829 B7                    1860 	or	a, a
      00082A 28 18                 1861 	jr	Z, 00121$
                                   1862 ;main.c:440: loadNewBackGround(interior_map);
      00082C 11r88r0C              1863 	ld	de, #_interior_map
      00082F D5                    1864 	push	de
      000830 CDr00r05              1865 	call	_loadNewBackGround
      000833 E1                    1866 	pop	hl
                                   1867 ;main.c:441: actualMap(interior_map);
      000834 11r88r0C              1868 	ld	de, #_interior_map
      000837 D5                    1869 	push	de
      000838 CDr72r05              1870 	call	_actualMap
      00083B E1                    1871 	pop	hl
                                   1872 ;main.c:442: loadDialogue(w_dialogue_003);
      00083C 11r10r13              1873 	ld	de, #_w_dialogue_003
      00083F D5                    1874 	push	de
      000840 CDrD5r05              1875 	call	_loadDialogue
      000843 E1                    1876 	pop	hl
      000844                       1877 00121$:
                                   1878 ;main.c:445: if(joypad() & J_DOWN){//Cambia de objeto disponible
      000844 CDr00r00              1879 	call	_joypad
      000847 CB 5B                 1880 	bit	3, e
      000849 CArF0r08              1881 	jp	Z,00138$
                                   1882 ;main.c:446: if(jumpAllow==1){
      00084C FAr14r00              1883 	ld	a, (#_jumpAllow)
      00084F 3D                    1884 	dec	a
      000850 C2rF0r08              1885 	jp	NZ,00138$
                                   1886 ;main.c:447: if(downPCounter >= 2){
      000853 FAr10r00              1887 	ld	a, (#_downPCounter)
      000856 D6 02                 1888 	sub	a, #0x02
      000858 38 09                 1889 	jr	C, 00123$
                                   1890 ;main.c:448: sCounter++;
      00085A 21r0Fr00              1891 	ld	hl, #_sCounter
      00085D 34                    1892 	inc	(hl)
                                   1893 ;main.c:449: downPCounter=0;
      00085E 21r10r00              1894 	ld	hl, #_downPCounter
      000861 36 00                 1895 	ld	(hl), #0x00
      000863                       1896 00123$:
                                   1897 ;main.c:451: if(sCounter > 2){
      000863 3E 02                 1898 	ld	a, #0x02
      000865 21r0Fr00              1899 	ld	hl, #_sCounter
      000868 96                    1900 	sub	a, (hl)
      000869 30 02                 1901 	jr	NC, 00125$
                                   1902 ;main.c:452: sCounter=0;
      00086B 36 00                 1903 	ld	(hl), #0x00
      00086D                       1904 00125$:
                                   1905 ;main.c:454: if(sCounter == 0){//arco
      00086D FAr0Fr00              1906 	ld	a, (#_sCounter)
      000870 B7                    1907 	or	a, a
      000871 20 3B                 1908 	jr	NZ, 00130$
                                   1909 ;c:/gbdk/include/gb/gb.h:1447: shadow_OAM[nb].tile=tile;
      000873 21r0Ar00              1910 	ld	hl, #(_shadow_OAM + 10)
      000876 36 16                 1911 	ld	(hl), #0x16
                                   1912 ;main.c:456: setWindowStat(r_stat_002);
      000878 11r88r13              1913 	ld	de, #_r_stat_002
      00087B D5                    1914 	push	de
      00087C CDr04r06              1915 	call	_setWindowStat
      00087F E1                    1916 	pop	hl
                                   1917 ;main.c:403: move_sprite(0,pPosX,pPosY);
      000880 21r03r00              1918 	ld	hl, #_pPosY
      000883 5E                    1919 	ld	e, (hl)
                                   1920 ;main.c:457: if(faceing==1){
      000884 FAr13r00              1921 	ld	a, (#_faceing)
      000887 3D                    1922 	dec	a
      000888 20 10                 1923 	jr	NZ, 00127$
                                   1924 ;main.c:458: move_sprite(2,pPosX+offset,pPosY);
      00088A FAr02r00              1925 	ld	a, (#_pPosX)
      00088D 21r00r14              1926 	ld	hl, #_offset
      000890 86                    1927 	add	a, (hl)
      000891 4F                    1928 	ld	c, a
                                   1929 ;c:/gbdk/include/gb/gb.h:1520: OAM_item_t * itm = &shadow_OAM[nb];
      000892 21r08r00              1930 	ld	hl, #(_shadow_OAM + 8)
                                   1931 ;c:/gbdk/include/gb/gb.h:1521: itm->y=y, itm->x=x;
      000895 7B                    1932 	ld	a, e
      000896 22                    1933 	ld	(hl+), a
      000897 71                    1934 	ld	(hl), c
                                   1935 ;main.c:458: move_sprite(2,pPosX+offset,pPosY);
      000898 18 0A                 1936 	jr	00128$
      00089A                       1937 00127$:
                                   1938 ;main.c:462: move_sprite(2,pPosX,pPosY);
      00089A 21r02r00              1939 	ld	hl, #_pPosX
      00089D 4E                    1940 	ld	c, (hl)
                                   1941 ;c:/gbdk/include/gb/gb.h:1520: OAM_item_t * itm = &shadow_OAM[nb];
      00089E 21r08r00              1942 	ld	hl, #(_shadow_OAM + 8)
                                   1943 ;c:/gbdk/include/gb/gb.h:1521: itm->y=y, itm->x=x;
      0008A1 7B                    1944 	ld	a, e
      0008A2 22                    1945 	ld	(hl+), a
      0008A3 71                    1946 	ld	(hl), c
                                   1947 ;main.c:462: move_sprite(2,pPosX,pPosY);
      0008A4                       1948 00128$:
                                   1949 ;main.c:464: dashAviable=0;
      0008A4 21r15r00              1950 	ld	hl, #_dashAviable
      0008A7 36 00                 1951 	ld	(hl), #0x00
                                   1952 ;main.c:465: carryRow=1;
      0008A9 21r17r00              1953 	ld	hl, #_carryRow
      0008AC 36 01                 1954 	ld	(hl), #0x01
      0008AE                       1955 00130$:
                                   1956 ;main.c:468: if(sCounter == 1){ //dash disponible
      0008AE FAr0Fr00              1957 	ld	a, (#_sCounter)
      0008B1 3D                    1958 	dec	a
      0008B2 20 29                 1959 	jr	NZ, 00132$
                                   1960 ;c:/gbdk/include/gb/gb.h:1447: shadow_OAM[nb].tile=tile;
      0008B4 21r0Ar00              1961 	ld	hl, #(_shadow_OAM + 10)
      0008B7 36 14                 1962 	ld	(hl), #0x14
                                   1963 ;main.c:470: setWindowStat(r_stat_001);
      0008B9 11r4Cr13              1964 	ld	de, #_r_stat_001
      0008BC D5                    1965 	push	de
      0008BD CDr04r06              1966 	call	_setWindowStat
      0008C0 E1                    1967 	pop	hl
                                   1968 ;main.c:471: move_sprite(2,pPosX+offset,pPosY);
      0008C1 21r03r00              1969 	ld	hl, #_pPosY
      0008C4 46                    1970 	ld	b, (hl)
      0008C5 FAr02r00              1971 	ld	a, (#_pPosX)
      0008C8 21r00r14              1972 	ld	hl, #_offset
      0008CB 86                    1973 	add	a, (hl)
      0008CC 4F                    1974 	ld	c, a
                                   1975 ;c:/gbdk/include/gb/gb.h:1520: OAM_item_t * itm = &shadow_OAM[nb];
      0008CD 21r08r00              1976 	ld	hl, #(_shadow_OAM + 8)
                                   1977 ;c:/gbdk/include/gb/gb.h:1521: itm->y=y, itm->x=x;
      0008D0 78                    1978 	ld	a, b
      0008D1 22                    1979 	ld	(hl+), a
      0008D2 71                    1980 	ld	(hl), c
                                   1981 ;main.c:472: dashAviable=1;
      0008D3 21r15r00              1982 	ld	hl, #_dashAviable
      0008D6 36 01                 1983 	ld	(hl), #0x01
                                   1984 ;main.c:473: carryRow=0;
      0008D8 21r17r00              1985 	ld	hl, #_carryRow
      0008DB 36 00                 1986 	ld	(hl), #0x00
      0008DD                       1987 00132$:
                                   1988 ;main.c:475: if(sCounter == 2){ //something else
      0008DD FAr0Fr00              1989 	ld	a, (#_sCounter)
      0008E0 D6 02                 1990 	sub	a, #0x02
      0008E2 20 08                 1991 	jr	NZ, 00134$
                                   1992 ;main.c:476: setWindowStat(r_stat_003);
      0008E4 11rC4r13              1993 	ld	de, #_r_stat_003
      0008E7 D5                    1994 	push	de
      0008E8 CDr04r06              1995 	call	_setWindowStat
      0008EB E1                    1996 	pop	hl
      0008EC                       1997 00134$:
                                   1998 ;main.c:478: downPCounter++;
      0008EC 21r10r00              1999 	ld	hl, #_downPCounter
      0008EF 34                    2000 	inc	(hl)
      0008F0                       2001 00138$:
                                   2002 ;main.c:481: if((((J_B & joypad()) && (joypad() & J_RIGHT)) || dashAviable==0) && (reDash == 0 && sCounter==1)){// Dash a la derecha
      0008F0 CDr00r00              2003 	call	_joypad
      0008F3 CB 6B                 2004 	bit	5, e
      0008F5 28 07                 2005 	jr	Z, 00142$
      0008F7 CDr00r00              2006 	call	_joypad
      0008FA 7B                    2007 	ld	a, e
      0008FB 0F                    2008 	rrca
      0008FC 38 06                 2009 	jr	C, 00144$
      0008FE                       2010 00142$:
      0008FE FAr15r00              2011 	ld	a, (#_dashAviable)
      000901 B7                    2012 	or	a, a
      000902 20 0F                 2013 	jr	NZ, 00140$
      000904                       2014 00144$:
      000904 FAr16r00              2015 	ld	a, (#_reDash)
      000907 B7                    2016 	or	a, a
      000908 20 09                 2017 	jr	NZ, 00140$
      00090A FAr0Fr00              2018 	ld	a, (#_sCounter)
      00090D 3D                    2019 	dec	a
      00090E 20 03                 2020 	jr	NZ, 00140$
                                   2021 ;main.c:482: dash();
      000910 CDr46r02              2022 	call	_dash
      000913                       2023 00140$:
                                   2024 ;main.c:484: if((((J_B & joypad()) && (joypad() & J_LEFT)) || dashAviable==0) && (reDash == 0 && sCounter==1)){// Dash  a la izquierda
      000913 CDr00r00              2025 	call	_joypad
      000916 CB 6B                 2026 	bit	5, e
      000918 28 07                 2027 	jr	Z, 00148$
      00091A CDr00r00              2028 	call	_joypad
      00091D CB 4B                 2029 	bit	1, e
      00091F 20 06                 2030 	jr	NZ, 00150$
      000921                       2031 00148$:
      000921 FAr15r00              2032 	ld	a, (#_dashAviable)
      000924 B7                    2033 	or	a, a
      000925 20 0F                 2034 	jr	NZ, 00146$
      000927                       2035 00150$:
      000927 FAr16r00              2036 	ld	a, (#_reDash)
      00092A B7                    2037 	or	a, a
      00092B 20 09                 2038 	jr	NZ, 00146$
      00092D FAr0Fr00              2039 	ld	a, (#_sCounter)
      000930 3D                    2040 	dec	a
      000931 20 03                 2041 	jr	NZ, 00146$
                                   2042 ;main.c:485: dash();
      000933 CDr46r02              2043 	call	_dash
      000936                       2044 00146$:
                                   2045 ;main.c:488: if(onAnim==1){
      000936 FAr12r00              2046 	ld	a, (#_onAnim)
      000939 3D                    2047 	dec	a
      00093A 20 03                 2048 	jr	NZ, 00152$
                                   2049 ;main.c:489: updateAnim();
      00093C CDrE8r03              2050 	call	_updateAnim
      00093F                       2051 00152$:
                                   2052 ;main.c:491: if(enemySet==1){
      00093F FAr03r14              2053 	ld	a, (#_enemySet)
      000942 3D                    2054 	dec	a
      000943 20 06                 2055 	jr	NZ, 00154$
                                   2056 ;main.c:492: updateEnemyAnim();
      000945 CDr41r04              2057 	call	_updateEnemyAnim
                                   2058 ;main.c:493: enemyAttack();
      000948 CDrFDr02              2059 	call	_enemyAttack
      00094B                       2060 00154$:
                                   2061 ;main.c:495: if(scrollAviable == 1){
      00094B FAr02r14              2062 	ld	a, (#_scrollAviable)
      00094E 3D                    2063 	dec	a
      00094F 20 48                 2064 	jr	NZ, 00159$
                                   2065 ;main.c:496: if(pPosX==160){
      000951 FAr02r00              2066 	ld	a, (#_pPosX)
      000954 D6 A0                 2067 	sub	a, #0xa0
      000956 20 41                 2068 	jr	NZ, 00159$
                                   2069 ;main.c:497: for(sX=0;sX<=152;sX+=8){
      000958 21r0Br00              2070 	ld	hl, #_sX
      00095B 36 00                 2071 	ld	(hl), #0x00
      00095D                       2072 00191$:
                                   2073 ;main.c:498: scroll_bkg(sX,0);
      00095D 21r0Br00              2074 	ld	hl, #_sX
      000960 4E                    2075 	ld	c, (hl)
                                   2076 ;c:/gbdk/include/gb/gb.h:1094: SCX_REG+=x, SCY_REG+=y;
      000961 F0r00                 2077 	ldh	a, (_SCX_REG + 0)
      000963 81                    2078 	add	a, c
      000964 E0r00                 2079 	ldh	(_SCX_REG + 0), a
                                   2080 ;main.c:499: pPosX-=8;
      000966 21r02r00              2081 	ld	hl, #_pPosX
      000969 7E                    2082 	ld	a, (hl)
      00096A C6 F8                 2083 	add	a, #0xf8
      00096C 77                    2084 	ld	(hl), a
                                   2085 ;main.c:500: move_sprite(0,pPosX,pPosY);
      00096D 21r03r00              2086 	ld	hl, #_pPosY
      000970 46                    2087 	ld	b, (hl)
      000971 21r02r00              2088 	ld	hl, #_pPosX
      000974 4E                    2089 	ld	c, (hl)
                                   2090 ;c:/gbdk/include/gb/gb.h:1520: OAM_item_t * itm = &shadow_OAM[nb];
      000975 21r00r00              2091 	ld	hl, #_shadow_OAM
                                   2092 ;c:/gbdk/include/gb/gb.h:1521: itm->y=y, itm->x=x;
      000978 78                    2093 	ld	a, b
      000979 22                    2094 	ld	(hl+), a
      00097A 71                    2095 	ld	(hl), c
                                   2096 ;main.c:501: move_sprite(1,pPosX+offset,pPosY);
      00097B 21r03r00              2097 	ld	hl, #_pPosY
      00097E 46                    2098 	ld	b, (hl)
      00097F FAr02r00              2099 	ld	a, (#_pPosX)
      000982 21r00r14              2100 	ld	hl, #_offset
      000985 86                    2101 	add	a, (hl)
      000986 4F                    2102 	ld	c, a
                                   2103 ;c:/gbdk/include/gb/gb.h:1520: OAM_item_t * itm = &shadow_OAM[nb];
      000987 21r04r00              2104 	ld	hl, #(_shadow_OAM + 4)
                                   2105 ;c:/gbdk/include/gb/gb.h:1521: itm->y=y, itm->x=x;
      00098A 78                    2106 	ld	a, b
      00098B 22                    2107 	ld	(hl+), a
      00098C 71                    2108 	ld	(hl), c
                                   2109 ;main.c:497: for(sX=0;sX<=152;sX+=8){
      00098D 21r0Br00              2110 	ld	hl, #_sX
      000990 7E                    2111 	ld	a, (hl)
      000991 C6 08                 2112 	add	a, #0x08
      000993 77                    2113 	ld	(hl), a
      000994 3E 98                 2114 	ld	a, #0x98
      000996 96                    2115 	sub	a, (hl)
      000997 30 C4                 2116 	jr	NC, 00191$
      000999                       2117 00159$:
                                   2118 ;main.c:505: if(reDash==1){// Contador para cooldown de dash
      000999 FAr16r00              2119 	ld	a, (#_reDash)
      00099C 3D                    2120 	dec	a
      00099D 20 18                 2121 	jr	NZ, 00163$
                                   2122 ;main.c:506: if(dashCoolDown >= 30){
      00099F FAr11r00              2123 	ld	a, (#_dashCoolDown)
      0009A2 D6 1E                 2124 	sub	a, #0x1e
      0009A4 38 0A                 2125 	jr	C, 00161$
                                   2126 ;main.c:507: reDash=0;
      0009A6 21r16r00              2127 	ld	hl, #_reDash
      0009A9 36 00                 2128 	ld	(hl), #0x00
                                   2129 ;main.c:508: dashCoolDown=0;
      0009AB 21r11r00              2130 	ld	hl, #_dashCoolDown
      0009AE 36 00                 2131 	ld	(hl), #0x00
      0009B0                       2132 00161$:
                                   2133 ;main.c:510: dashCoolDown+=2;
      0009B0 21r11r00              2134 	ld	hl, #_dashCoolDown
      0009B3 7E                    2135 	ld	a, (hl)
      0009B4 C6 02                 2136 	add	a, #0x02
      0009B6 77                    2137 	ld	(hl), a
      0009B7                       2138 00163$:
                                   2139 ;main.c:512: performtDelay(5);
      0009B7 3E 05                 2140 	ld	a, #0x05
      0009B9 F5                    2141 	push	af
      0009BA 33                    2142 	inc	sp
      0009BB CDr00r00              2143 	call	_performtDelay
      0009BE 33                    2144 	inc	sp
                                   2145 ;main.c:515: }
      0009BF C3r04r07              2146 	jp	00165$
                                   2147 	.area _CODE
                                   2148 	.area _INITIALIZER
      000000                       2149 __xinit__tiles_church:
      000000 00                    2150 	.db #0x00	; 0
      000001 00                    2151 	.db #0x00	; 0
      000002 00                    2152 	.db #0x00	; 0
      000003 00                    2153 	.db #0x00	; 0
      000004 00                    2154 	.db #0x00	; 0
      000005 00                    2155 	.db #0x00	; 0
      000006 00                    2156 	.db #0x00	; 0
      000007 00                    2157 	.db #0x00	; 0
      000008 00                    2158 	.db #0x00	; 0
      000009 00                    2159 	.db #0x00	; 0
      00000A 00                    2160 	.db #0x00	; 0
      00000B 00                    2161 	.db #0x00	; 0
      00000C 00                    2162 	.db #0x00	; 0
      00000D 00                    2163 	.db #0x00	; 0
      00000E 00                    2164 	.db #0x00	; 0
      00000F 00                    2165 	.db #0x00	; 0
      000010 00                    2166 	.db #0x00	; 0
      000011 FF                    2167 	.db #0xff	; 255
      000012 00                    2168 	.db #0x00	; 0
      000013 FF                    2169 	.db #0xff	; 255
      000014 00                    2170 	.db #0x00	; 0
      000015 FF                    2171 	.db #0xff	; 255
      000016 00                    2172 	.db #0x00	; 0
      000017 FF                    2173 	.db #0xff	; 255
      000018 00                    2174 	.db #0x00	; 0
      000019 FF                    2175 	.db #0xff	; 255
      00001A 00                    2176 	.db #0x00	; 0
      00001B FF                    2177 	.db #0xff	; 255
      00001C 00                    2178 	.db #0x00	; 0
      00001D FF                    2179 	.db #0xff	; 255
      00001E 00                    2180 	.db #0x00	; 0
      00001F FF                    2181 	.db #0xff	; 255
      000020 01                    2182 	.db #0x01	; 1
      000021 1C                    2183 	.db #0x1c	; 28
      000022 02                    2184 	.db #0x02	; 2
      000023 1D                    2185 	.db #0x1d	; 29
      000024 05                    2186 	.db #0x05	; 5
      000025 1A                    2187 	.db #0x1a	; 26
      000026 0B                    2188 	.db #0x0b	; 11
      000027 15                    2189 	.db #0x15	; 21
      000028 16                    2190 	.db #0x16	; 22
      000029 0B                    2191 	.db #0x0b	; 11
      00002A 2C                    2192 	.db #0x2c	; 44
      00002B 17                    2193 	.db #0x17	; 23
      00002C 58                    2194 	.db #0x58	; 88	'X'
      00002D 2F                    2195 	.db #0x2f	; 47
      00002E B0                    2196 	.db #0xb0	; 176
      00002F 5F                    2197 	.db #0x5f	; 95
      000030 00                    2198 	.db #0x00	; 0
      000031 00                    2199 	.db #0x00	; 0
      000032 00                    2200 	.db #0x00	; 0
      000033 00                    2201 	.db #0x00	; 0
      000034 00                    2202 	.db #0x00	; 0
      000035 08                    2203 	.db #0x08	; 8
      000036 00                    2204 	.db #0x00	; 0
      000037 1C                    2205 	.db #0x1c	; 28
      000038 00                    2206 	.db #0x00	; 0
      000039 1C                    2207 	.db #0x1c	; 28
      00003A 00                    2208 	.db #0x00	; 0
      00003B 08                    2209 	.db #0x08	; 8
      00003C 00                    2210 	.db #0x00	; 0
      00003D 08                    2211 	.db #0x08	; 8
      00003E 00                    2212 	.db #0x00	; 0
      00003F 08                    2213 	.db #0x08	; 8
      000040 78                    2214 	.db #0x78	; 120	'x'
      000041 A7                    2215 	.db #0xa7	; 167
      000042 FC                    2216 	.db #0xfc	; 252
      000043 5B                    2217 	.db #0x5b	; 91
      000044 BC                    2218 	.db #0xbc	; 188
      000045 DB                    2219 	.db #0xdb	; 219
      000046 3C                    2220 	.db #0x3c	; 60
      000047 DB                    2221 	.db #0xdb	; 219
      000048 3C                    2222 	.db #0x3c	; 60
      000049 DB                    2223 	.db #0xdb	; 219
      00004A 3C                    2224 	.db #0x3c	; 60
      00004B DB                    2225 	.db #0xdb	; 219
      00004C 3C                    2226 	.db #0x3c	; 60
      00004D DB                    2227 	.db #0xdb	; 219
      00004E 7E                    2228 	.db #0x7e	; 126
      00004F BD                    2229 	.db #0xbd	; 189
      000050 7E                    2230 	.db #0x7e	; 126
      000051 BD                    2231 	.db #0xbd	; 189
      000052 7E                    2232 	.db #0x7e	; 126
      000053 BD                    2233 	.db #0xbd	; 189
      000054 7E                    2234 	.db #0x7e	; 126
      000055 BD                    2235 	.db #0xbd	; 189
      000056 7E                    2236 	.db #0x7e	; 126
      000057 BD                    2237 	.db #0xbd	; 189
      000058 7E                    2238 	.db #0x7e	; 126
      000059 BD                    2239 	.db #0xbd	; 189
      00005A 7E                    2240 	.db #0x7e	; 126
      00005B BD                    2241 	.db #0xbd	; 189
      00005C 7E                    2242 	.db #0x7e	; 126
      00005D BD                    2243 	.db #0xbd	; 189
      00005E FF                    2244 	.db #0xff	; 255
      00005F 00                    2245 	.db #0x00	; 0
      000060 3C                    2246 	.db #0x3c	; 60
      000061 FF                    2247 	.db #0xff	; 255
      000062 C7                    2248 	.db #0xc7	; 199
      000063 DB                    2249 	.db #0xdb	; 219
      000064 A3                    2250 	.db #0xa3	; 163
      000065 18                    2251 	.db #0x18	; 24
      000066 E6                    2252 	.db #0xe6	; 230
      000067 18                    2253 	.db #0x18	; 24
      000068 C7                    2254 	.db #0xc7	; 199
      000069 18                    2255 	.db #0x18	; 24
      00006A E1                    2256 	.db #0xe1	; 225
      00006B 18                    2257 	.db #0x18	; 24
      00006C 67                    2258 	.db #0x67	; 103	'g'
      00006D 18                    2259 	.db #0x18	; 24
      00006E E7                    2260 	.db #0xe7	; 231
      00006F 18                    2261 	.db #0x18	; 24
      000070 46                    2262 	.db #0x46	; 70	'F'
      000071 99                    2263 	.db #0x99	; 153
      000072 A5                    2264 	.db #0xa5	; 165
      000073 5A                    2265 	.db #0x5a	; 90	'Z'
      000074 83                    2266 	.db #0x83	; 131
      000075 3C                    2267 	.db #0x3c	; 60
      000076 00                    2268 	.db #0x00	; 0
      000077 FF                    2269 	.db #0xff	; 255
      000078 00                    2270 	.db #0x00	; 0
      000079 FF                    2271 	.db #0xff	; 255
      00007A C3                    2272 	.db #0xc3	; 195
      00007B 3C                    2273 	.db #0x3c	; 60
      00007C 85                    2274 	.db #0x85	; 133
      00007D 5A                    2275 	.db #0x5a	; 90	'Z'
      00007E 46                    2276 	.db #0x46	; 70	'F'
      00007F 99                    2277 	.db #0x99	; 153
      000080 E7                    2278 	.db #0xe7	; 231
      000081 18                    2279 	.db #0x18	; 24
      000082 E6                    2280 	.db #0xe6	; 230
      000083 18                    2281 	.db #0x18	; 24
      000084 65                    2282 	.db #0x65	; 101	'e'
      000085 18                    2283 	.db #0x18	; 24
      000086 C7                    2284 	.db #0xc7	; 199
      000087 18                    2285 	.db #0x18	; 24
      000088 E6                    2286 	.db #0xe6	; 230
      000089 18                    2287 	.db #0x18	; 24
      00008A C5                    2288 	.db #0xc5	; 197
      00008B 18                    2289 	.db #0x18	; 24
      00008C C7                    2290 	.db #0xc7	; 199
      00008D DB                    2291 	.db #0xdb	; 219
      00008E 3C                    2292 	.db #0x3c	; 60
      00008F FF                    2293 	.db #0xff	; 255
      000090 00                    2294 	.db #0x00	; 0
      000091 FF                    2295 	.db #0xff	; 255
      000092 01                    2296 	.db #0x01	; 1
      000093 FF                    2297 	.db #0xff	; 255
      000094 07                    2298 	.db #0x07	; 7
      000095 FE                    2299 	.db #0xfe	; 254
      000096 0C                    2300 	.db #0x0c	; 12
      000097 F8                    2301 	.db #0xf8	; 248
      000098 17                    2302 	.db #0x17	; 23
      000099 F8                    2303 	.db #0xf8	; 248
      00009A 3B                    2304 	.db #0x3b	; 59
      00009B E4                    2305 	.db #0xe4	; 228
      00009C 24                    2306 	.db #0x24	; 36
      00009D E2                    2307 	.db #0xe2	; 226
      00009E 7E                    2308 	.db #0x7e	; 126
      00009F C1                    2309 	.db #0xc1	; 193
      0000A0 79                    2310 	.db #0x79	; 121	'y'
      0000A1 C0                    2311 	.db #0xc0	; 192
      0000A2 7F                    2312 	.db #0x7f	; 127
      0000A3 C0                    2313 	.db #0xc0	; 192
      0000A4 CD                    2314 	.db #0xcd	; 205
      0000A5 80                    2315 	.db #0x80	; 128
      0000A6 80                    2316 	.db #0x80	; 128
      0000A7 FF                    2317 	.db #0xff	; 255
      0000A8 80                    2318 	.db #0x80	; 128
      0000A9 FF                    2319 	.db #0xff	; 255
      0000AA C6                    2320 	.db #0xc6	; 198
      0000AB 80                    2321 	.db #0x80	; 128
      0000AC 7F                    2322 	.db #0x7f	; 127
      0000AD C0                    2323 	.db #0xc0	; 192
      0000AE 73                    2324 	.db #0x73	; 115	's'
      0000AF C0                    2325 	.db #0xc0	; 192
      0000B0 7E                    2326 	.db #0x7e	; 126
      0000B1 C1                    2327 	.db #0xc1	; 193
      0000B2 3D                    2328 	.db #0x3d	; 61
      0000B3 E2                    2329 	.db #0xe2	; 226
      0000B4 23                    2330 	.db #0x23	; 35
      0000B5 E4                    2331 	.db #0xe4	; 228
      0000B6 15                    2332 	.db #0x15	; 21
      0000B7 F8                    2333 	.db #0xf8	; 248
      0000B8 0B                    2334 	.db #0x0b	; 11
      0000B9 F8                    2335 	.db #0xf8	; 248
      0000BA 07                    2336 	.db #0x07	; 7
      0000BB FE                    2337 	.db #0xfe	; 254
      0000BC 01                    2338 	.db #0x01	; 1
      0000BD FF                    2339 	.db #0xff	; 255
      0000BE 00                    2340 	.db #0x00	; 0
      0000BF FF                    2341 	.db #0xff	; 255
      0000C0 00                    2342 	.db #0x00	; 0
      0000C1 FF                    2343 	.db #0xff	; 255
      0000C2 80                    2344 	.db #0x80	; 128
      0000C3 FF                    2345 	.db #0xff	; 255
      0000C4 E0                    2346 	.db #0xe0	; 224
      0000C5 7F                    2347 	.db #0x7f	; 127
      0000C6 90                    2348 	.db #0x90	; 144
      0000C7 1F                    2349 	.db #0x1f	; 31
      0000C8 E8                    2350 	.db #0xe8	; 232
      0000C9 1F                    2351 	.db #0x1f	; 31
      0000CA C4                    2352 	.db #0xc4	; 196
      0000CB 27                    2353 	.db #0x27	; 39
      0000CC 1C                    2354 	.db #0x1c	; 28
      0000CD 47                    2355 	.db #0x47	; 71	'G'
      0000CE 7E                    2356 	.db #0x7e	; 126
      0000CF 83                    2357 	.db #0x83	; 131
      0000D0 EA                    2358 	.db #0xea	; 234
      0000D1 03                    2359 	.db #0x03	; 3
      0000D2 FE                    2360 	.db #0xfe	; 254
      0000D3 03                    2361 	.db #0x03	; 3
      0000D4 91                    2362 	.db #0x91	; 145
      0000D5 01                    2363 	.db #0x01	; 1
      0000D6 01                    2364 	.db #0x01	; 1
      0000D7 FF                    2365 	.db #0xff	; 255
      0000D8 01                    2366 	.db #0x01	; 1
      0000D9 FF                    2367 	.db #0xff	; 255
      0000DA 7F                    2368 	.db #0x7f	; 127
      0000DB 01                    2369 	.db #0x01	; 1
      0000DC FE                    2370 	.db #0xfe	; 254
      0000DD 03                    2371 	.db #0x03	; 3
      0000DE FE                    2372 	.db #0xfe	; 254
      0000DF 03                    2373 	.db #0x03	; 3
      0000E0 7E                    2374 	.db #0x7e	; 126
      0000E1 83                    2375 	.db #0x83	; 131
      0000E2 BC                    2376 	.db #0xbc	; 188
      0000E3 47                    2377 	.db #0x47	; 71	'G'
      0000E4 DC                    2378 	.db #0xdc	; 220
      0000E5 27                    2379 	.db #0x27	; 39
      0000E6 E8                    2380 	.db #0xe8	; 232
      0000E7 1F                    2381 	.db #0x1f	; 31
      0000E8 F0                    2382 	.db #0xf0	; 240
      0000E9 1F                    2383 	.db #0x1f	; 31
      0000EA E0                    2384 	.db #0xe0	; 224
      0000EB 7F                    2385 	.db #0x7f	; 127
      0000EC 80                    2386 	.db #0x80	; 128
      0000ED FF                    2387 	.db #0xff	; 255
      0000EE 00                    2388 	.db #0x00	; 0
      0000EF FF                    2389 	.db #0xff	; 255
      0000F0 ED                    2390 	.db #0xed	; 237
      0000F1 B6                    2391 	.db #0xb6	; 182
      0000F2 ED                    2392 	.db #0xed	; 237
      0000F3 B6                    2393 	.db #0xb6	; 182
      0000F4 ED                    2394 	.db #0xed	; 237
      0000F5 B6                    2395 	.db #0xb6	; 182
      0000F6 ED                    2396 	.db #0xed	; 237
      0000F7 B6                    2397 	.db #0xb6	; 182
      0000F8 ED                    2398 	.db #0xed	; 237
      0000F9 B6                    2399 	.db #0xb6	; 182
      0000FA ED                    2400 	.db #0xed	; 237
      0000FB B6                    2401 	.db #0xb6	; 182
      0000FC ED                    2402 	.db #0xed	; 237
      0000FD B6                    2403 	.db #0xb6	; 182
      0000FE ED                    2404 	.db #0xed	; 237
      0000FF B6                    2405 	.db #0xb6	; 182
      000100 18                    2406 	.db #0x18	; 24
      000101 18                    2407 	.db #0x18	; 24
      000102 18                    2408 	.db #0x18	; 24
      000103 18                    2409 	.db #0x18	; 24
      000104 18                    2410 	.db #0x18	; 24
      000105 18                    2411 	.db #0x18	; 24
      000106 18                    2412 	.db #0x18	; 24
      000107 18                    2413 	.db #0x18	; 24
      000108 3C                    2414 	.db #0x3c	; 60
      000109 3C                    2415 	.db #0x3c	; 60
      00010A 3C                    2416 	.db #0x3c	; 60
      00010B 3C                    2417 	.db #0x3c	; 60
      00010C 7E                    2418 	.db #0x7e	; 126
      00010D 7E                    2419 	.db #0x7e	; 126
      00010E 7E                    2420 	.db #0x7e	; 126
      00010F 7E                    2421 	.db #0x7e	; 126
      000110 FF                    2422 	.db #0xff	; 255
      000111 FF                    2423 	.db #0xff	; 255
      000112 FF                    2424 	.db #0xff	; 255
      000113 FF                    2425 	.db #0xff	; 255
      000114 FF                    2426 	.db #0xff	; 255
      000115 FF                    2427 	.db #0xff	; 255
      000116 FF                    2428 	.db #0xff	; 255
      000117 FF                    2429 	.db #0xff	; 255
      000118 00                    2430 	.db #0x00	; 0
      000119 FF                    2431 	.db #0xff	; 255
      00011A FF                    2432 	.db #0xff	; 255
      00011B E7                    2433 	.db #0xe7	; 231
      00011C FF                    2434 	.db #0xff	; 255
      00011D 18                    2435 	.db #0x18	; 24
      00011E A5                    2436 	.db #0xa5	; 165
      00011F 18                    2437 	.db #0x18	; 24
      000120 BD                    2438 	.db #0xbd	; 189
      000121 18                    2439 	.db #0x18	; 24
      000122 A5                    2440 	.db #0xa5	; 165
      000123 18                    2441 	.db #0x18	; 24
      000124 BD                    2442 	.db #0xbd	; 189
      000125 18                    2443 	.db #0x18	; 24
      000126 A5                    2444 	.db #0xa5	; 165
      000127 18                    2445 	.db #0x18	; 24
      000128 BD                    2446 	.db #0xbd	; 189
      000129 18                    2447 	.db #0x18	; 24
      00012A E7                    2448 	.db #0xe7	; 231
      00012B 18                    2449 	.db #0x18	; 24
      00012C FF                    2450 	.db #0xff	; 255
      00012D 18                    2451 	.db #0x18	; 24
      00012E 00                    2452 	.db #0x00	; 0
      00012F FF                    2453 	.db #0xff	; 255
      000130 80                    2454 	.db #0x80	; 128
      000131 FF                    2455 	.db #0xff	; 255
      000132 C0                    2456 	.db #0xc0	; 192
      000133 FE                    2457 	.db #0xfe	; 254
      000134 80                    2458 	.db #0x80	; 128
      000135 FF                    2459 	.db #0xff	; 255
      000136 00                    2460 	.db #0x00	; 0
      000137 FF                    2461 	.db #0xff	; 255
      000138 7E                    2462 	.db #0x7e	; 126
      000139 FF                    2463 	.db #0xff	; 255
      00013A 7E                    2464 	.db #0x7e	; 126
      00013B C3                    2465 	.db #0xc3	; 195
      00013C 66                    2466 	.db #0x66	; 102	'f'
      00013D C3                    2467 	.db #0xc3	; 195
      00013E 66                    2468 	.db #0x66	; 102	'f'
      00013F C3                    2469 	.db #0xc3	; 195
      000140 18                    2470 	.db #0x18	; 24
      000141 FF                    2471 	.db #0xff	; 255
      000142 3C                    2472 	.db #0x3c	; 60
      000143 66                    2473 	.db #0x66	; 102	'f'
      000144 3C                    2474 	.db #0x3c	; 60
      000145 C3                    2475 	.db #0xc3	; 195
      000146 00                    2476 	.db #0x00	; 0
      000147 FF                    2477 	.db #0xff	; 255
      000148 ED                    2478 	.db #0xed	; 237
      000149 B6                    2479 	.db #0xb6	; 182
      00014A ED                    2480 	.db #0xed	; 237
      00014B B6                    2481 	.db #0xb6	; 182
      00014C ED                    2482 	.db #0xed	; 237
      00014D B6                    2483 	.db #0xb6	; 182
      00014E ED                    2484 	.db #0xed	; 237
      00014F B6                    2485 	.db #0xb6	; 182
      000150 00                    2486 	.db #0x00	; 0
      000151 00                    2487 	.db #0x00	; 0
      000152 00                    2488 	.db #0x00	; 0
      000153 00                    2489 	.db #0x00	; 0
      000154 01                    2490 	.db #0x01	; 1
      000155 01                    2491 	.db #0x01	; 1
      000156 01                    2492 	.db #0x01	; 1
      000157 01                    2493 	.db #0x01	; 1
      000158 00                    2494 	.db #0x00	; 0
      000159 01                    2495 	.db #0x01	; 1
      00015A 00                    2496 	.db #0x00	; 0
      00015B 01                    2497 	.db #0x01	; 1
      00015C 00                    2498 	.db #0x00	; 0
      00015D 01                    2499 	.db #0x01	; 1
      00015E 00                    2500 	.db #0x00	; 0
      00015F 01                    2501 	.db #0x01	; 1
      000160 44                    2502 	.db #0x44	; 68	'D'
      000161 45                    2503 	.db #0x45	; 69	'E'
      000162 EE                    2504 	.db #0xee	; 238
      000163 EF                    2505 	.db #0xef	; 239
      000164 44                    2506 	.db #0x44	; 68	'D'
      000165 45                    2507 	.db #0x45	; 69	'E'
      000166 44                    2508 	.db #0x44	; 68	'D'
      000167 45                    2509 	.db #0x45	; 69	'E'
      000168 44                    2510 	.db #0x44	; 68	'D'
      000169 45                    2511 	.db #0x45	; 69	'E'
      00016A EE                    2512 	.db #0xee	; 238
      00016B EF                    2513 	.db #0xef	; 239
      00016C AA                    2514 	.db #0xaa	; 170
      00016D AB                    2515 	.db #0xab	; 171
      00016E BA                    2516 	.db #0xba	; 186
      00016F BB                    2517 	.db #0xbb	; 187
      000170 BB                    2518 	.db #0xbb	; 187
      000171 BB                    2519 	.db #0xbb	; 187
      000172 BB                    2520 	.db #0xbb	; 187
      000173 BB                    2521 	.db #0xbb	; 187
      000174 FF                    2522 	.db #0xff	; 255
      000175 FF                    2523 	.db #0xff	; 255
      000176 80                    2524 	.db #0x80	; 128
      000177 FF                    2525 	.db #0xff	; 255
      000178 FF                    2526 	.db #0xff	; 255
      000179 80                    2527 	.db #0x80	; 128
      00017A C0                    2528 	.db #0xc0	; 192
      00017B FF                    2529 	.db #0xff	; 255
      00017C 7F                    2530 	.db #0x7f	; 127
      00017D 60                    2531 	.db #0x60	; 96
      00017E 3F                    2532 	.db #0x3f	; 63
      00017F 3F                    2533 	.db #0x3f	; 63
      000180 03                    2534 	.db #0x03	; 3
      000181 03                    2535 	.db #0x03	; 3
      000182 07                    2536 	.db #0x07	; 7
      000183 07                    2537 	.db #0x07	; 7
      000184 03                    2538 	.db #0x03	; 3
      000185 03                    2539 	.db #0x03	; 3
      000186 01                    2540 	.db #0x01	; 1
      000187 01                    2541 	.db #0x01	; 1
      000188 01                    2542 	.db #0x01	; 1
      000189 01                    2543 	.db #0x01	; 1
      00018A 00                    2544 	.db #0x00	; 0
      00018B 00                    2545 	.db #0x00	; 0
      00018C 00                    2546 	.db #0x00	; 0
      00018D 00                    2547 	.db #0x00	; 0
      00018E 00                    2548 	.db #0x00	; 0
      00018F 00                    2549 	.db #0x00	; 0
      000190 00                    2550 	.db #0x00	; 0
      000191 00                    2551 	.db #0x00	; 0
      000192 00                    2552 	.db #0x00	; 0
      000193 00                    2553 	.db #0x00	; 0
      000194 80                    2554 	.db #0x80	; 128
      000195 80                    2555 	.db #0x80	; 128
      000196 80                    2556 	.db #0x80	; 128
      000197 80                    2557 	.db #0x80	; 128
      000198 00                    2558 	.db #0x00	; 0
      000199 80                    2559 	.db #0x80	; 128
      00019A 00                    2560 	.db #0x00	; 0
      00019B 80                    2561 	.db #0x80	; 128
      00019C 00                    2562 	.db #0x00	; 0
      00019D 80                    2563 	.db #0x80	; 128
      00019E 00                    2564 	.db #0x00	; 0
      00019F 80                    2565 	.db #0x80	; 128
      0001A0 00                    2566 	.db #0x00	; 0
      0001A1 80                    2567 	.db #0x80	; 128
      0001A2 00                    2568 	.db #0x00	; 0
      0001A3 80                    2569 	.db #0x80	; 128
      0001A4 00                    2570 	.db #0x00	; 0
      0001A5 80                    2571 	.db #0x80	; 128
      0001A6 00                    2572 	.db #0x00	; 0
      0001A7 80                    2573 	.db #0x80	; 128
      0001A8 00                    2574 	.db #0x00	; 0
      0001A9 80                    2575 	.db #0x80	; 128
      0001AA 00                    2576 	.db #0x00	; 0
      0001AB 80                    2577 	.db #0x80	; 128
      0001AC 00                    2578 	.db #0x00	; 0
      0001AD 80                    2579 	.db #0x80	; 128
      0001AE 00                    2580 	.db #0x00	; 0
      0001AF 80                    2581 	.db #0x80	; 128
      0001B0 3C                    2582 	.db #0x3c	; 60
      0001B1 34                    2583 	.db #0x34	; 52	'4'
      0001B2 7E                    2584 	.db #0x7e	; 126
      0001B3 6E                    2585 	.db #0x6e	; 110	'n'
      0001B4 FF                    2586 	.db #0xff	; 255
      0001B5 CD                    2587 	.db #0xcd	; 205
      0001B6 7E                    2588 	.db #0x7e	; 126
      0001B7 6E                    2589 	.db #0x6e	; 110	'n'
      0001B8 3C                    2590 	.db #0x3c	; 60
      0001B9 34                    2591 	.db #0x34	; 52	'4'
      0001BA 18                    2592 	.db #0x18	; 24
      0001BB 18                    2593 	.db #0x18	; 24
      0001BC 18                    2594 	.db #0x18	; 24
      0001BD 18                    2595 	.db #0x18	; 24
      0001BE 18                    2596 	.db #0x18	; 24
      0001BF 18                    2597 	.db #0x18	; 24
      0001C0 18                    2598 	.db #0x18	; 24
      0001C1 18                    2599 	.db #0x18	; 24
      0001C2 18                    2600 	.db #0x18	; 24
      0001C3 18                    2601 	.db #0x18	; 24
      0001C4 18                    2602 	.db #0x18	; 24
      0001C5 18                    2603 	.db #0x18	; 24
      0001C6 18                    2604 	.db #0x18	; 24
      0001C7 18                    2605 	.db #0x18	; 24
      0001C8 18                    2606 	.db #0x18	; 24
      0001C9 00                    2607 	.db #0x00	; 0
      0001CA 24                    2608 	.db #0x24	; 36
      0001CB 18                    2609 	.db #0x18	; 24
      0001CC 5A                    2610 	.db #0x5a	; 90	'Z'
      0001CD 24                    2611 	.db #0x24	; 36
      0001CE BD                    2612 	.db #0xbd	; 189
      0001CF 5A                    2613 	.db #0x5a	; 90	'Z'
      0001D0 7E                    2614 	.db #0x7e	; 126
      0001D1 A5                    2615 	.db #0xa5	; 165
      0001D2 FF                    2616 	.db #0xff	; 255
      0001D3 5A                    2617 	.db #0x5a	; 90	'Z'
      0001D4 FF                    2618 	.db #0xff	; 255
      0001D5 BD                    2619 	.db #0xbd	; 189
      0001D6 FF                    2620 	.db #0xff	; 255
      0001D7 7E                    2621 	.db #0x7e	; 126
      0001D8 FF                    2622 	.db #0xff	; 255
      0001D9 7E                    2623 	.db #0x7e	; 126
      0001DA FF                    2624 	.db #0xff	; 255
      0001DB 7E                    2625 	.db #0x7e	; 126
      0001DC FF                    2626 	.db #0xff	; 255
      0001DD 7E                    2627 	.db #0x7e	; 126
      0001DE FF                    2628 	.db #0xff	; 255
      0001DF 00                    2629 	.db #0x00	; 0
      0001E0 80                    2630 	.db #0x80	; 128
      0001E1 1C                    2631 	.db #0x1c	; 28
      0001E2 40                    2632 	.db #0x40	; 64
      0001E3 9C                    2633 	.db #0x9c	; 156
      0001E4 A0                    2634 	.db #0xa0	; 160
      0001E5 5C                    2635 	.db #0x5c	; 92
      0001E6 D0                    2636 	.db #0xd0	; 208
      0001E7 AC                    2637 	.db #0xac	; 172
      0001E8 68                    2638 	.db #0x68	; 104	'h'
      0001E9 D4                    2639 	.db #0xd4	; 212
      0001EA 34                    2640 	.db #0x34	; 52	'4'
      0001EB E8                    2641 	.db #0xe8	; 232
      0001EC 1A                    2642 	.db #0x1a	; 26
      0001ED F4                    2643 	.db #0xf4	; 244
      0001EE 0D                    2644 	.db #0x0d	; 13
      0001EF FA                    2645 	.db #0xfa	; 250
      0001F0 38                    2646 	.db #0x38	; 56	'8'
      0001F1 FF                    2647 	.db #0xff	; 255
      0001F2 7C                    2648 	.db #0x7c	; 124
      0001F3 FF                    2649 	.db #0xff	; 255
      0001F4 DA                    2650 	.db #0xda	; 218
      0001F5 93                    2651 	.db #0x93	; 147
      0001F6 FE                    2652 	.db #0xfe	; 254
      0001F7 93                    2653 	.db #0x93	; 147
      0001F8 FE                    2654 	.db #0xfe	; 254
      0001F9 FF                    2655 	.db #0xff	; 255
      0001FA DA                    2656 	.db #0xda	; 218
      0001FB 93                    2657 	.db #0x93	; 147
      0001FC FE                    2658 	.db #0xfe	; 254
      0001FD 93                    2659 	.db #0x93	; 147
      0001FE 7C                    2660 	.db #0x7c	; 124
      0001FF FF                    2661 	.db #0xff	; 255
      000200 7C                    2662 	.db #0x7c	; 124
      000201 83                    2663 	.db #0x83	; 131
      000202 7C                    2664 	.db #0x7c	; 124
      000203 FF                    2665 	.db #0xff	; 255
      000204 00                    2666 	.db #0x00	; 0
      000205 FF                    2667 	.db #0xff	; 255
      000206 00                    2668 	.db #0x00	; 0
      000207 FF                    2669 	.db #0xff	; 255
      000208 00                    2670 	.db #0x00	; 0
      000209 FF                    2671 	.db #0xff	; 255
      00020A 00                    2672 	.db #0x00	; 0
      00020B FE                    2673 	.db #0xfe	; 254
      00020C 00                    2674 	.db #0x00	; 0
      00020D FE                    2675 	.db #0xfe	; 254
      00020E 00                    2676 	.db #0x00	; 0
      00020F FC                    2677 	.db #0xfc	; 252
      000210 00                    2678 	.db #0x00	; 0
      000211 00                    2679 	.db #0x00	; 0
      000212 00                    2680 	.db #0x00	; 0
      000213 00                    2681 	.db #0x00	; 0
      000214 00                    2682 	.db #0x00	; 0
      000215 00                    2683 	.db #0x00	; 0
      000216 00                    2684 	.db #0x00	; 0
      000217 00                    2685 	.db #0x00	; 0
      000218 00                    2686 	.db #0x00	; 0
      000219 00                    2687 	.db #0x00	; 0
      00021A 00                    2688 	.db #0x00	; 0
      00021B 00                    2689 	.db #0x00	; 0
      00021C 00                    2690 	.db #0x00	; 0
      00021D 00                    2691 	.db #0x00	; 0
      00021E F0                    2692 	.db #0xf0	; 240
      00021F 00                    2693 	.db #0x00	; 0
      000220 00                    2694 	.db #0x00	; 0
      000221 E0                    2695 	.db #0xe0	; 224
      000222 00                    2696 	.db #0x00	; 0
      000223 C0                    2697 	.db #0xc0	; 192
      000224 00                    2698 	.db #0x00	; 0
      000225 80                    2699 	.db #0x80	; 128
      000226 00                    2700 	.db #0x00	; 0
      000227 00                    2701 	.db #0x00	; 0
      000228 00                    2702 	.db #0x00	; 0
      000229 00                    2703 	.db #0x00	; 0
      00022A 00                    2704 	.db #0x00	; 0
      00022B 00                    2705 	.db #0x00	; 0
      00022C 00                    2706 	.db #0x00	; 0
      00022D 00                    2707 	.db #0x00	; 0
      00022E 00                    2708 	.db #0x00	; 0
      00022F 00                    2709 	.db #0x00	; 0
      000230 FF                    2710 	.db #0xff	; 255
      000231 FF                    2711 	.db #0xff	; 255
      000232 FF                    2712 	.db #0xff	; 255
      000233 FF                    2713 	.db #0xff	; 255
      000234 FF                    2714 	.db #0xff	; 255
      000235 FF                    2715 	.db #0xff	; 255
      000236 FF                    2716 	.db #0xff	; 255
      000237 FF                    2717 	.db #0xff	; 255
      000238 FF                    2718 	.db #0xff	; 255
      000239 FF                    2719 	.db #0xff	; 255
      00023A FF                    2720 	.db #0xff	; 255
      00023B FF                    2721 	.db #0xff	; 255
      00023C FF                    2722 	.db #0xff	; 255
      00023D FF                    2723 	.db #0xff	; 255
      00023E FF                    2724 	.db #0xff	; 255
      00023F FF                    2725 	.db #0xff	; 255
      000240 00                    2726 	.db #0x00	; 0
      000241 01                    2727 	.db #0x01	; 1
      000242 00                    2728 	.db #0x00	; 0
      000243 01                    2729 	.db #0x01	; 1
      000244 00                    2730 	.db #0x00	; 0
      000245 07                    2731 	.db #0x07	; 7
      000246 00                    2732 	.db #0x00	; 0
      000247 01                    2733 	.db #0x01	; 1
      000248 00                    2734 	.db #0x00	; 0
      000249 01                    2735 	.db #0x01	; 1
      00024A 00                    2736 	.db #0x00	; 0
      00024B 03                    2737 	.db #0x03	; 3
      00024C 00                    2738 	.db #0x00	; 0
      00024D 0F                    2739 	.db #0x0f	; 15
      00024E 00                    2740 	.db #0x00	; 0
      00024F 1F                    2741 	.db #0x1f	; 31
      000250 00                    2742 	.db #0x00	; 0
      000251 80                    2743 	.db #0x80	; 128
      000252 00                    2744 	.db #0x00	; 0
      000253 80                    2745 	.db #0x80	; 128
      000254 00                    2746 	.db #0x00	; 0
      000255 E0                    2747 	.db #0xe0	; 224
      000256 00                    2748 	.db #0x00	; 0
      000257 80                    2749 	.db #0x80	; 128
      000258 00                    2750 	.db #0x00	; 0
      000259 80                    2751 	.db #0x80	; 128
      00025A 00                    2752 	.db #0x00	; 0
      00025B C0                    2753 	.db #0xc0	; 192
      00025C 00                    2754 	.db #0x00	; 0
      00025D F0                    2755 	.db #0xf0	; 240
      00025E 00                    2756 	.db #0x00	; 0
      00025F F8                    2757 	.db #0xf8	; 248
      000260 00                    2758 	.db #0x00	; 0
      000261 1F                    2759 	.db #0x1f	; 31
      000262 01                    2760 	.db #0x01	; 1
      000263 3F                    2761 	.db #0x3f	; 63
      000264 03                    2762 	.db #0x03	; 3
      000265 3F                    2763 	.db #0x3f	; 63
      000266 13                    2764 	.db #0x13	; 19
      000267 6B                    2765 	.db #0x6b	; 107	'k'
      000268 33                    2766 	.db #0x33	; 51	'3'
      000269 6B                    2767 	.db #0x6b	; 107	'k'
      00026A 33                    2768 	.db #0x33	; 51	'3'
      00026B 6B                    2769 	.db #0x6b	; 107	'k'
      00026C 37                    2770 	.db #0x37	; 55	'7'
      00026D 5F                    2771 	.db #0x5f	; 95
      00026E 37                    2772 	.db #0x37	; 55	'7'
      00026F 5F                    2773 	.db #0x5f	; 95
      000270 00                    2774 	.db #0x00	; 0
      000271 F8                    2775 	.db #0xf8	; 248
      000272 80                    2776 	.db #0x80	; 128
      000273 FC                    2777 	.db #0xfc	; 252
      000274 C0                    2778 	.db #0xc0	; 192
      000275 FC                    2779 	.db #0xfc	; 252
      000276 C8                    2780 	.db #0xc8	; 200
      000277 D6                    2781 	.db #0xd6	; 214
      000278 CC                    2782 	.db #0xcc	; 204
      000279 D6                    2783 	.db #0xd6	; 214
      00027A CC                    2784 	.db #0xcc	; 204
      00027B D6                    2785 	.db #0xd6	; 214
      00027C EC                    2786 	.db #0xec	; 236
      00027D FA                    2787 	.db #0xfa	; 250
      00027E EC                    2788 	.db #0xec	; 236
      00027F FA                    2789 	.db #0xfa	; 250
      000280 31                    2790 	.db #0x31	; 49	'1'
      000281 59                    2791 	.db #0x59	; 89	'Y'
      000282 30                    2792 	.db #0x30	; 48	'0'
      000283 58                    2793 	.db #0x58	; 88	'X'
      000284 30                    2794 	.db #0x30	; 48	'0'
      000285 58                    2795 	.db #0x58	; 88	'X'
      000286 30                    2796 	.db #0x30	; 48	'0'
      000287 58                    2797 	.db #0x58	; 88	'X'
      000288 30                    2798 	.db #0x30	; 48	'0'
      000289 68                    2799 	.db #0x68	; 104	'h'
      00028A 30                    2800 	.db #0x30	; 48	'0'
      00028B 68                    2801 	.db #0x68	; 104	'h'
      00028C 30                    2802 	.db #0x30	; 48	'0'
      00028D 68                    2803 	.db #0x68	; 104	'h'
      00028E 3F                    2804 	.db #0x3f	; 63
      00028F 6F                    2805 	.db #0x6f	; 111	'o'
      000290 8C                    2806 	.db #0x8c	; 140
      000291 9A                    2807 	.db #0x9a	; 154
      000292 0C                    2808 	.db #0x0c	; 12
      000293 1A                    2809 	.db #0x1a	; 26
      000294 0C                    2810 	.db #0x0c	; 12
      000295 1A                    2811 	.db #0x1a	; 26
      000296 0C                    2812 	.db #0x0c	; 12
      000297 1A                    2813 	.db #0x1a	; 26
      000298 0C                    2814 	.db #0x0c	; 12
      000299 16                    2815 	.db #0x16	; 22
      00029A 0C                    2816 	.db #0x0c	; 12
      00029B 16                    2817 	.db #0x16	; 22
      00029C 0C                    2818 	.db #0x0c	; 12
      00029D 16                    2819 	.db #0x16	; 22
      00029E FC                    2820 	.db #0xfc	; 252
      00029F F6                    2821 	.db #0xf6	; 246
      0002A0 27                    2822 	.db #0x27	; 39
      0002A1 7F                    2823 	.db #0x7f	; 127
      0002A2 22                    2824 	.db #0x22	; 34
      0002A3 7A                    2825 	.db #0x7a	; 122	'z'
      0002A4 22                    2826 	.db #0x22	; 34
      0002A5 7A                    2827 	.db #0x7a	; 122	'z'
      0002A6 02                    2828 	.db #0x02	; 2
      0002A7 7A                    2829 	.db #0x7a	; 122	'z'
      0002A8 02                    2830 	.db #0x02	; 2
      0002A9 1A                    2831 	.db #0x1a	; 26
      0002AA 00                    2832 	.db #0x00	; 0
      0002AB 1F                    2833 	.db #0x1f	; 31
      0002AC 1F                    2834 	.db #0x1f	; 31
      0002AD 60                    2835 	.db #0x60	; 96
      0002AE 7F                    2836 	.db #0x7f	; 127
      0002AF FF                    2837 	.db #0xff	; 255
      0002B0 E4                    2838 	.db #0xe4	; 228
      0002B1 FE                    2839 	.db #0xfe	; 254
      0002B2 44                    2840 	.db #0x44	; 68	'D'
      0002B3 5E                    2841 	.db #0x5e	; 94
      0002B4 44                    2842 	.db #0x44	; 68	'D'
      0002B5 5E                    2843 	.db #0x5e	; 94
      0002B6 40                    2844 	.db #0x40	; 64
      0002B7 5E                    2845 	.db #0x5e	; 94
      0002B8 40                    2846 	.db #0x40	; 64
      0002B9 58                    2847 	.db #0x58	; 88	'X'
      0002BA 00                    2848 	.db #0x00	; 0
      0002BB F8                    2849 	.db #0xf8	; 248
      0002BC F8                    2850 	.db #0xf8	; 248
      0002BD 06                    2851 	.db #0x06	; 6
      0002BE FE                    2852 	.db #0xfe	; 254
      0002BF FF                    2853 	.db #0xff	; 255
      0002C0 FF                    2854 	.db #0xff	; 255
      0002C1 00                    2855 	.db #0x00	; 0
      0002C2 40                    2856 	.db #0x40	; 64
      0002C3 FF                    2857 	.db #0xff	; 255
      0002C4 80                    2858 	.db #0x80	; 128
      0002C5 FF                    2859 	.db #0xff	; 255
      0002C6 00                    2860 	.db #0x00	; 0
      0002C7 FF                    2861 	.db #0xff	; 255
      0002C8 00                    2862 	.db #0x00	; 0
      0002C9 FF                    2863 	.db #0xff	; 255
      0002CA 00                    2864 	.db #0x00	; 0
      0002CB FF                    2865 	.db #0xff	; 255
      0002CC 18                    2866 	.db #0x18	; 24
      0002CD E7                    2867 	.db #0xe7	; 231
      0002CE 24                    2868 	.db #0x24	; 36
      0002CF DB                    2869 	.db #0xdb	; 219
      0002D0 7E                    2870 	.db #0x7e	; 126
      0002D1 A5                    2871 	.db #0xa5	; 165
      0002D2 FF                    2872 	.db #0xff	; 255
      0002D3 5A                    2873 	.db #0x5a	; 90	'Z'
      0002D4 FF                    2874 	.db #0xff	; 255
      0002D5 BD                    2875 	.db #0xbd	; 189
      0002D6 FF                    2876 	.db #0xff	; 255
      0002D7 7E                    2877 	.db #0x7e	; 126
      0002D8 FF                    2878 	.db #0xff	; 255
      0002D9 7E                    2879 	.db #0x7e	; 126
      0002DA FF                    2880 	.db #0xff	; 255
      0002DB 7E                    2881 	.db #0x7e	; 126
      0002DC FF                    2882 	.db #0xff	; 255
      0002DD 7E                    2883 	.db #0x7e	; 126
      0002DE FF                    2884 	.db #0xff	; 255
      0002DF 00                    2885 	.db #0x00	; 0
      0002E0 FF                    2886 	.db #0xff	; 255
      0002E1 00                    2887 	.db #0x00	; 0
      0002E2 FF                    2888 	.db #0xff	; 255
      0002E3 FF                    2889 	.db #0xff	; 255
      0002E4 00                    2890 	.db #0x00	; 0
      0002E5 FF                    2891 	.db #0xff	; 255
      0002E6 FF                    2892 	.db #0xff	; 255
      0002E7 00                    2893 	.db #0x00	; 0
      0002E8 00                    2894 	.db #0x00	; 0
      0002E9 FF                    2895 	.db #0xff	; 255
      0002EA 00                    2896 	.db #0x00	; 0
      0002EB FF                    2897 	.db #0xff	; 255
      0002EC 00                    2898 	.db #0x00	; 0
      0002ED FF                    2899 	.db #0xff	; 255
      0002EE 00                    2900 	.db #0x00	; 0
      0002EF FF                    2901 	.db #0xff	; 255
      0002F0 00                    2902 	.db #0x00	; 0
      0002F1 FF                    2903 	.db #0xff	; 255
      0002F2 00                    2904 	.db #0x00	; 0
      0002F3 FF                    2905 	.db #0xff	; 255
      0002F4 80                    2906 	.db #0x80	; 128
      0002F5 7F                    2907 	.db #0x7f	; 127
      0002F6 C0                    2908 	.db #0xc0	; 192
      0002F7 BF                    2909 	.db #0xbf	; 191
      0002F8 E0                    2910 	.db #0xe0	; 224
      0002F9 DF                    2911 	.db #0xdf	; 223
      0002FA F0                    2912 	.db #0xf0	; 240
      0002FB EF                    2913 	.db #0xef	; 239
      0002FC F8                    2914 	.db #0xf8	; 248
      0002FD F7                    2915 	.db #0xf7	; 247
      0002FE FC                    2916 	.db #0xfc	; 252
      0002FF FB                    2917 	.db #0xfb	; 251
      000300 F8                    2918 	.db #0xf8	; 248
      000301 07                    2919 	.db #0x07	; 7
      000302 F0                    2920 	.db #0xf0	; 240
      000303 FF                    2921 	.db #0xff	; 255
      000304 10                    2922 	.db #0x10	; 16
      000305 EF                    2923 	.db #0xef	; 239
      000306 E0                    2924 	.db #0xe0	; 224
      000307 1F                    2925 	.db #0x1f	; 31
      000308 00                    2926 	.db #0x00	; 0
      000309 FF                    2927 	.db #0xff	; 255
      00030A 00                    2928 	.db #0x00	; 0
      00030B FF                    2929 	.db #0xff	; 255
      00030C 00                    2930 	.db #0x00	; 0
      00030D FF                    2931 	.db #0xff	; 255
      00030E 00                    2932 	.db #0x00	; 0
      00030F FF                    2933 	.db #0xff	; 255
      000310 E0                    2934 	.db #0xe0	; 224
      000311 3F                    2935 	.db #0x3f	; 63
      000312 C0                    2936 	.db #0xc0	; 192
      000313 7F                    2937 	.db #0x7f	; 127
      000314 81                    2938 	.db #0x81	; 129
      000315 7E                    2939 	.db #0x7e	; 126
      000316 83                    2940 	.db #0x83	; 131
      000317 7D                    2941 	.db #0x7d	; 125
      000318 87                    2942 	.db #0x87	; 135
      000319 7B                    2943 	.db #0x7b	; 123
      00031A 8F                    2944 	.db #0x8f	; 143
      00031B 77                    2945 	.db #0x77	; 119	'w'
      00031C 9F                    2946 	.db #0x9f	; 159
      00031D 6F                    2947 	.db #0x6f	; 111	'o'
      00031E BF                    2948 	.db #0xbf	; 191
      00031F 5F                    2949 	.db #0x5f	; 95
      000320 1F                    2950 	.db #0x1f	; 31
      000321 E0                    2951 	.db #0xe0	; 224
      000322 0F                    2952 	.db #0x0f	; 15
      000323 FF                    2953 	.db #0xff	; 255
      000324 08                    2954 	.db #0x08	; 8
      000325 F7                    2955 	.db #0xf7	; 247
      000326 07                    2956 	.db #0x07	; 7
      000327 F8                    2957 	.db #0xf8	; 248
      000328 00                    2958 	.db #0x00	; 0
      000329 FF                    2959 	.db #0xff	; 255
      00032A 00                    2960 	.db #0x00	; 0
      00032B FF                    2961 	.db #0xff	; 255
      00032C 00                    2962 	.db #0x00	; 0
      00032D FF                    2963 	.db #0xff	; 255
      00032E 00                    2964 	.db #0x00	; 0
      00032F FF                    2965 	.db #0xff	; 255
      000330 7F                    2966 	.db #0x7f	; 127
      000331 00                    2967 	.db #0x00	; 0
      000332 80                    2968 	.db #0x80	; 128
      000333 7F                    2969 	.db #0x7f	; 127
      000334 80                    2970 	.db #0x80	; 128
      000335 7F                    2971 	.db #0x7f	; 127
      000336 80                    2972 	.db #0x80	; 128
      000337 7F                    2973 	.db #0x7f	; 127
      000338 80                    2974 	.db #0x80	; 128
      000339 7F                    2975 	.db #0x7f	; 127
      00033A 80                    2976 	.db #0x80	; 128
      00033B 7F                    2977 	.db #0x7f	; 127
      00033C 80                    2978 	.db #0x80	; 128
      00033D 7F                    2979 	.db #0x7f	; 127
      00033E 80                    2980 	.db #0x80	; 128
      00033F 7F                    2981 	.db #0x7f	; 127
      000340 80                    2982 	.db #0x80	; 128
      000341 7F                    2983 	.db #0x7f	; 127
      000342 80                    2984 	.db #0x80	; 128
      000343 7F                    2985 	.db #0x7f	; 127
      000344 80                    2986 	.db #0x80	; 128
      000345 7F                    2987 	.db #0x7f	; 127
      000346 80                    2988 	.db #0x80	; 128
      000347 7F                    2989 	.db #0x7f	; 127
      000348 80                    2990 	.db #0x80	; 128
      000349 7F                    2991 	.db #0x7f	; 127
      00034A 80                    2992 	.db #0x80	; 128
      00034B 7F                    2993 	.db #0x7f	; 127
      00034C 80                    2994 	.db #0x80	; 128
      00034D 7F                    2995 	.db #0x7f	; 127
      00034E 80                    2996 	.db #0x80	; 128
      00034F 7F                    2997 	.db #0x7f	; 127
      000350 00                    2998 	.db #0x00	; 0
      000351 00                    2999 	.db #0x00	; 0
      000352 00                    3000 	.db #0x00	; 0
      000353 00                    3001 	.db #0x00	; 0
      000354 00                    3002 	.db #0x00	; 0
      000355 77                    3003 	.db #0x77	; 119	'w'
      000356 00                    3004 	.db #0x00	; 0
      000357 4A                    3005 	.db #0x4a	; 74	'J'
      000358 00                    3006 	.db #0x00	; 0
      000359 2A                    3007 	.db #0x2a	; 42
      00035A 00                    3008 	.db #0x00	; 0
      00035B 2A                    3009 	.db #0x2a	; 42
      00035C 00                    3010 	.db #0x00	; 0
      00035D 1A                    3011 	.db #0x1a	; 26
      00035E 00                    3012 	.db #0x00	; 0
      00035F 0F                    3013 	.db #0x0f	; 15
      000360 00                    3014 	.db #0x00	; 0
      000361 0F                    3015 	.db #0x0f	; 15
      000362 00                    3016 	.db #0x00	; 0
      000363 0F                    3017 	.db #0x0f	; 15
      000364 00                    3018 	.db #0x00	; 0
      000365 07                    3019 	.db #0x07	; 7
      000366 00                    3020 	.db #0x00	; 0
      000367 07                    3021 	.db #0x07	; 7
      000368 00                    3022 	.db #0x00	; 0
      000369 03                    3023 	.db #0x03	; 3
      00036A 00                    3024 	.db #0x00	; 0
      00036B 01                    3025 	.db #0x01	; 1
      00036C 00                    3026 	.db #0x00	; 0
      00036D 00                    3027 	.db #0x00	; 0
      00036E 00                    3028 	.db #0x00	; 0
      00036F 00                    3029 	.db #0x00	; 0
      000370 1E                    3030 	.db #0x1e	; 30
      000371 E5                    3031 	.db #0xe5	; 229
      000372 3F                    3032 	.db #0x3f	; 63
      000373 DA                    3033 	.db #0xda	; 218
      000374 3D                    3034 	.db #0x3d	; 61
      000375 DB                    3035 	.db #0xdb	; 219
      000376 3C                    3036 	.db #0x3c	; 60
      000377 DB                    3037 	.db #0xdb	; 219
      000378 3C                    3038 	.db #0x3c	; 60
      000379 DB                    3039 	.db #0xdb	; 219
      00037A 3C                    3040 	.db #0x3c	; 60
      00037B DB                    3041 	.db #0xdb	; 219
      00037C 3C                    3042 	.db #0x3c	; 60
      00037D DB                    3043 	.db #0xdb	; 219
      00037E 7E                    3044 	.db #0x7e	; 126
      00037F BD                    3045 	.db #0xbd	; 189
      000380 00                    3046 	.db #0x00	; 0
      000381 FF                    3047 	.db #0xff	; 255
      000382 00                    3048 	.db #0x00	; 0
      000383 FF                    3049 	.db #0xff	; 255
      000384 00                    3050 	.db #0x00	; 0
      000385 FF                    3051 	.db #0xff	; 255
      000386 7E                    3052 	.db #0x7e	; 126
      000387 81                    3053 	.db #0x81	; 129
      000388 FF                    3054 	.db #0xff	; 255
      000389 7E                    3055 	.db #0x7e	; 126
      00038A FF                    3056 	.db #0xff	; 255
      00038B FF                    3057 	.db #0xff	; 255
      00038C FF                    3058 	.db #0xff	; 255
      00038D FF                    3059 	.db #0xff	; 255
      00038E FF                    3060 	.db #0xff	; 255
      00038F FF                    3061 	.db #0xff	; 255
      000390 00                    3062 	.db #0x00	; 0
      000391 FF                    3063 	.db #0xff	; 255
      000392 00                    3064 	.db #0x00	; 0
      000393 FF                    3065 	.db #0xff	; 255
      000394 00                    3066 	.db #0x00	; 0
      000395 FF                    3067 	.db #0xff	; 255
      000396 00                    3068 	.db #0x00	; 0
      000397 FF                    3069 	.db #0xff	; 255
      000398 01                    3070 	.db #0x01	; 1
      000399 FE                    3071 	.db #0xfe	; 254
      00039A 07                    3072 	.db #0x07	; 7
      00039B F9                    3073 	.db #0xf9	; 249
      00039C 0F                    3074 	.db #0x0f	; 15
      00039D F7                    3075 	.db #0xf7	; 247
      00039E 1F                    3076 	.db #0x1f	; 31
      00039F EF                    3077 	.db #0xef	; 239
      0003A0 1F                    3078 	.db #0x1f	; 31
      0003A1 EF                    3079 	.db #0xef	; 239
      0003A2 1F                    3080 	.db #0x1f	; 31
      0003A3 EF                    3081 	.db #0xef	; 239
      0003A4 1F                    3082 	.db #0x1f	; 31
      0003A5 EF                    3083 	.db #0xef	; 239
      0003A6 1F                    3084 	.db #0x1f	; 31
      0003A7 EF                    3085 	.db #0xef	; 239
      0003A8 1F                    3086 	.db #0x1f	; 31
      0003A9 EF                    3087 	.db #0xef	; 239
      0003AA 1F                    3088 	.db #0x1f	; 31
      0003AB EF                    3089 	.db #0xef	; 239
      0003AC 1F                    3090 	.db #0x1f	; 31
      0003AD EF                    3091 	.db #0xef	; 239
      0003AE 1F                    3092 	.db #0x1f	; 31
      0003AF EF                    3093 	.db #0xef	; 239
      0003B0 3F                    3094 	.db #0x3f	; 63
      0003B1 DF                    3095 	.db #0xdf	; 223
      0003B2 3F                    3096 	.db #0x3f	; 63
      0003B3 DF                    3097 	.db #0xdf	; 223
      0003B4 3F                    3098 	.db #0x3f	; 63
      0003B5 DF                    3099 	.db #0xdf	; 223
      0003B6 3F                    3100 	.db #0x3f	; 63
      0003B7 DF                    3101 	.db #0xdf	; 223
      0003B8 3F                    3102 	.db #0x3f	; 63
      0003B9 DF                    3103 	.db #0xdf	; 223
      0003BA 3F                    3104 	.db #0x3f	; 63
      0003BB DF                    3105 	.db #0xdf	; 223
      0003BC 3F                    3106 	.db #0x3f	; 63
      0003BD DF                    3107 	.db #0xdf	; 223
      0003BE 3F                    3108 	.db #0x3f	; 63
      0003BF DF                    3109 	.db #0xdf	; 223
      0003C0 3F                    3110 	.db #0x3f	; 63
      0003C1 DF                    3111 	.db #0xdf	; 223
      0003C2 7F                    3112 	.db #0x7f	; 127
      0003C3 BF                    3113 	.db #0xbf	; 191
      0003C4 7F                    3114 	.db #0x7f	; 127
      0003C5 BF                    3115 	.db #0xbf	; 191
      0003C6 7F                    3116 	.db #0x7f	; 127
      0003C7 BF                    3117 	.db #0xbf	; 191
      0003C8 7F                    3118 	.db #0x7f	; 127
      0003C9 BF                    3119 	.db #0xbf	; 191
      0003CA 7F                    3120 	.db #0x7f	; 127
      0003CB BF                    3121 	.db #0xbf	; 191
      0003CC 7F                    3122 	.db #0x7f	; 127
      0003CD BF                    3123 	.db #0xbf	; 191
      0003CE 7F                    3124 	.db #0x7f	; 127
      0003CF BF                    3125 	.db #0xbf	; 191
      0003D0 7F                    3126 	.db #0x7f	; 127
      0003D1 BF                    3127 	.db #0xbf	; 191
      0003D2 7F                    3128 	.db #0x7f	; 127
      0003D3 BF                    3129 	.db #0xbf	; 191
      0003D4 7F                    3130 	.db #0x7f	; 127
      0003D5 BF                    3131 	.db #0xbf	; 191
      0003D6 FF                    3132 	.db #0xff	; 255
      0003D7 7F                    3133 	.db #0x7f	; 127
      0003D8 FF                    3134 	.db #0xff	; 255
      0003D9 7F                    3135 	.db #0x7f	; 127
      0003DA FF                    3136 	.db #0xff	; 255
      0003DB 7F                    3137 	.db #0x7f	; 127
      0003DC FF                    3138 	.db #0xff	; 255
      0003DD 7F                    3139 	.db #0x7f	; 127
      0003DE FF                    3140 	.db #0xff	; 255
      0003DF 7F                    3141 	.db #0x7f	; 127
      0003E0 00                    3142 	.db #0x00	; 0
      0003E1 FF                    3143 	.db #0xff	; 255
      0003E2 00                    3144 	.db #0x00	; 0
      0003E3 FF                    3145 	.db #0xff	; 255
      0003E4 00                    3146 	.db #0x00	; 0
      0003E5 FF                    3147 	.db #0xff	; 255
      0003E6 00                    3148 	.db #0x00	; 0
      0003E7 FF                    3149 	.db #0xff	; 255
      0003E8 80                    3150 	.db #0x80	; 128
      0003E9 7F                    3151 	.db #0x7f	; 127
      0003EA E0                    3152 	.db #0xe0	; 224
      0003EB 9F                    3153 	.db #0x9f	; 159
      0003EC F0                    3154 	.db #0xf0	; 240
      0003ED EF                    3155 	.db #0xef	; 239
      0003EE F8                    3156 	.db #0xf8	; 248
      0003EF F7                    3157 	.db #0xf7	; 247
      0003F0 F8                    3158 	.db #0xf8	; 248
      0003F1 F7                    3159 	.db #0xf7	; 247
      0003F2 F8                    3160 	.db #0xf8	; 248
      0003F3 F7                    3161 	.db #0xf7	; 247
      0003F4 F8                    3162 	.db #0xf8	; 248
      0003F5 F7                    3163 	.db #0xf7	; 247
      0003F6 F8                    3164 	.db #0xf8	; 248
      0003F7 F7                    3165 	.db #0xf7	; 247
      0003F8 F8                    3166 	.db #0xf8	; 248
      0003F9 F7                    3167 	.db #0xf7	; 247
      0003FA F8                    3168 	.db #0xf8	; 248
      0003FB F7                    3169 	.db #0xf7	; 247
      0003FC F8                    3170 	.db #0xf8	; 248
      0003FD F7                    3171 	.db #0xf7	; 247
      0003FE F8                    3172 	.db #0xf8	; 248
      0003FF F7                    3173 	.db #0xf7	; 247
      000400 FC                    3174 	.db #0xfc	; 252
      000401 FB                    3175 	.db #0xfb	; 251
      000402 FC                    3176 	.db #0xfc	; 252
      000403 FB                    3177 	.db #0xfb	; 251
      000404 FC                    3178 	.db #0xfc	; 252
      000405 FB                    3179 	.db #0xfb	; 251
      000406 FC                    3180 	.db #0xfc	; 252
      000407 FB                    3181 	.db #0xfb	; 251
      000408 FC                    3182 	.db #0xfc	; 252
      000409 FB                    3183 	.db #0xfb	; 251
      00040A FC                    3184 	.db #0xfc	; 252
      00040B FB                    3185 	.db #0xfb	; 251
      00040C FC                    3186 	.db #0xfc	; 252
      00040D FB                    3187 	.db #0xfb	; 251
      00040E FC                    3188 	.db #0xfc	; 252
      00040F FB                    3189 	.db #0xfb	; 251
      000410 FC                    3190 	.db #0xfc	; 252
      000411 FB                    3191 	.db #0xfb	; 251
      000412 FE                    3192 	.db #0xfe	; 254
      000413 FD                    3193 	.db #0xfd	; 253
      000414 FE                    3194 	.db #0xfe	; 254
      000415 FD                    3195 	.db #0xfd	; 253
      000416 FE                    3196 	.db #0xfe	; 254
      000417 FD                    3197 	.db #0xfd	; 253
      000418 FE                    3198 	.db #0xfe	; 254
      000419 FD                    3199 	.db #0xfd	; 253
      00041A FE                    3200 	.db #0xfe	; 254
      00041B FD                    3201 	.db #0xfd	; 253
      00041C FE                    3202 	.db #0xfe	; 254
      00041D FD                    3203 	.db #0xfd	; 253
      00041E FE                    3204 	.db #0xfe	; 254
      00041F FD                    3205 	.db #0xfd	; 253
      000420 FE                    3206 	.db #0xfe	; 254
      000421 FD                    3207 	.db #0xfd	; 253
      000422 FE                    3208 	.db #0xfe	; 254
      000423 FD                    3209 	.db #0xfd	; 253
      000424 FE                    3210 	.db #0xfe	; 254
      000425 FD                    3211 	.db #0xfd	; 253
      000426 FF                    3212 	.db #0xff	; 255
      000427 FE                    3213 	.db #0xfe	; 254
      000428 FF                    3214 	.db #0xff	; 255
      000429 FE                    3215 	.db #0xfe	; 254
      00042A FF                    3216 	.db #0xff	; 255
      00042B FE                    3217 	.db #0xfe	; 254
      00042C FF                    3218 	.db #0xff	; 255
      00042D FE                    3219 	.db #0xfe	; 254
      00042E FF                    3220 	.db #0xff	; 255
      00042F FE                    3221 	.db #0xfe	; 254
      000430 FF                    3222 	.db #0xff	; 255
      000431 FF                    3223 	.db #0xff	; 255
      000432 FF                    3224 	.db #0xff	; 255
      000433 FF                    3225 	.db #0xff	; 255
      000434 FF                    3226 	.db #0xff	; 255
      000435 FF                    3227 	.db #0xff	; 255
      000436 FF                    3228 	.db #0xff	; 255
      000437 FF                    3229 	.db #0xff	; 255
      000438 FF                    3230 	.db #0xff	; 255
      000439 FF                    3231 	.db #0xff	; 255
      00043A FF                    3232 	.db #0xff	; 255
      00043B FF                    3233 	.db #0xff	; 255
      00043C FF                    3234 	.db #0xff	; 255
      00043D FF                    3235 	.db #0xff	; 255
      00043E FF                    3236 	.db #0xff	; 255
      00043F FF                    3237 	.db #0xff	; 255
      000440 FF                    3238 	.db #0xff	; 255
      000441 11                    3239 	.db #0x11	; 17
      000442 91                    3240 	.db #0x91	; 145
      000443 7F                    3241 	.db #0x7f	; 127
      000444 91                    3242 	.db #0x91	; 145
      000445 7F                    3243 	.db #0x7f	; 127
      000446 FF                    3244 	.db #0xff	; 255
      000447 FF                    3245 	.db #0xff	; 255
      000448 FF                    3246 	.db #0xff	; 255
      000449 22                    3247 	.db #0x22	; 34
      00044A 33                    3248 	.db #0x33	; 51	'3'
      00044B EE                    3249 	.db #0xee	; 238
      00044C 33                    3250 	.db #0x33	; 51	'3'
      00044D EE                    3251 	.db #0xee	; 238
      00044E FF                    3252 	.db #0xff	; 255
      00044F FF                    3253 	.db #0xff	; 255
      000450 FF                    3254 	.db #0xff	; 255
      000451 04                    3255 	.db #0x04	; 4
      000452 06                    3256 	.db #0x06	; 6
      000453 FD                    3257 	.db #0xfd	; 253
      000454 06                    3258 	.db #0x06	; 6
      000455 FD                    3259 	.db #0xfd	; 253
      000456 FF                    3260 	.db #0xff	; 255
      000457 FF                    3261 	.db #0xff	; 255
      000458 FF                    3262 	.db #0xff	; 255
      000459 20                    3263 	.db #0x20	; 32
      00045A 30                    3264 	.db #0x30	; 48	'0'
      00045B EF                    3265 	.db #0xef	; 239
      00045C 30                    3266 	.db #0x30	; 48	'0'
      00045D EF                    3267 	.db #0xef	; 239
      00045E FF                    3268 	.db #0xff	; 255
      00045F FF                    3269 	.db #0xff	; 255
      000460 FF                    3270 	.db #0xff	; 255
      000461 44                    3271 	.db #0x44	; 68	'D'
      000462 66                    3272 	.db #0x66	; 102	'f'
      000463 DD                    3273 	.db #0xdd	; 221
      000464 66                    3274 	.db #0x66	; 102	'f'
      000465 DD                    3275 	.db #0xdd	; 221
      000466 FF                    3276 	.db #0xff	; 255
      000467 FF                    3277 	.db #0xff	; 255
      000468 FF                    3278 	.db #0xff	; 255
      000469 88                    3279 	.db #0x88	; 136
      00046A CC                    3280 	.db #0xcc	; 204
      00046B BB                    3281 	.db #0xbb	; 187
      00046C CC                    3282 	.db #0xcc	; 204
      00046D BB                    3283 	.db #0xbb	; 187
      00046E FF                    3284 	.db #0xff	; 255
      00046F FF                    3285 	.db #0xff	; 255
      000470                       3286 __xinit__church_map:
      000470 00                    3287 	.db #0x00	; 0
      000471 00                    3288 	.db #0x00	; 0
      000472 00                    3289 	.db #0x00	; 0
      000473 00                    3290 	.db #0x00	; 0
      000474 00                    3291 	.db #0x00	; 0
      000475 00                    3292 	.db #0x00	; 0
      000476 00                    3293 	.db #0x00	; 0
      000477 00                    3294 	.db #0x00	; 0
      000478 10                    3295 	.db #0x10	; 16
      000479 00                    3296 	.db #0x00	; 0
      00047A 00                    3297 	.db #0x00	; 0
      00047B 00                    3298 	.db #0x00	; 0
      00047C 00                    3299 	.db #0x00	; 0
      00047D 00                    3300 	.db #0x00	; 0
      00047E 00                    3301 	.db #0x00	; 0
      00047F 00                    3302 	.db #0x00	; 0
      000480 00                    3303 	.db #0x00	; 0
      000481 00                    3304 	.db #0x00	; 0
      000482 00                    3305 	.db #0x00	; 0
      000483 00                    3306 	.db #0x00	; 0
      000484 00                    3307 	.db #0x00	; 0
      000485 00                    3308 	.db #0x00	; 0
      000486 00                    3309 	.db #0x00	; 0
      000487 00                    3310 	.db #0x00	; 0
      000488 00                    3311 	.db #0x00	; 0
      000489 00                    3312 	.db #0x00	; 0
      00048A 00                    3313 	.db #0x00	; 0
      00048B 15                    3314 	.db #0x15	; 21
      00048C 11                    3315 	.db #0x11	; 17
      00048D 19                    3316 	.db #0x19	; 25
      00048E 00                    3317 	.db #0x00	; 0
      00048F 1B                    3318 	.db #0x1b	; 27
      000490 00                    3319 	.db #0x00	; 0
      000491 00                    3320 	.db #0x00	; 0
      000492 24                    3321 	.db #0x24	; 36
      000493 25                    3322 	.db #0x25	; 37
      000494 00                    3323 	.db #0x00	; 0
      000495 00                    3324 	.db #0x00	; 0
      000496 00                    3325 	.db #0x00	; 0
      000497 00                    3326 	.db #0x00	; 0
      000498 00                    3327 	.db #0x00	; 0
      000499 00                    3328 	.db #0x00	; 0
      00049A 00                    3329 	.db #0x00	; 0
      00049B 00                    3330 	.db #0x00	; 0
      00049C 00                    3331 	.db #0x00	; 0
      00049D 00                    3332 	.db #0x00	; 0
      00049E 00                    3333 	.db #0x00	; 0
      00049F 16                    3334 	.db #0x16	; 22
      0004A0 12                    3335 	.db #0x12	; 18
      0004A1 1A                    3336 	.db #0x1a	; 26
      0004A2 03                    3337 	.db #0x03	; 3
      0004A3 1C                    3338 	.db #0x1c	; 28
      0004A4 03                    3339 	.db #0x03	; 3
      0004A5 00                    3340 	.db #0x00	; 0
      0004A6 26                    3341 	.db #0x26	; 38
      0004A7 27                    3342 	.db #0x27	; 39
      0004A8 00                    3343 	.db #0x00	; 0
      0004A9 00                    3344 	.db #0x00	; 0
      0004AA 00                    3345 	.db #0x00	; 0
      0004AB 00                    3346 	.db #0x00	; 0
      0004AC 00                    3347 	.db #0x00	; 0
      0004AD 00                    3348 	.db #0x00	; 0
      0004AE 00                    3349 	.db #0x00	; 0
      0004AF 00                    3350 	.db #0x00	; 0
      0004B0 00                    3351 	.db #0x00	; 0
      0004B1 00                    3352 	.db #0x00	; 0
      0004B2 18                    3353 	.db #0x18	; 24
      0004B3 17                    3354 	.db #0x17	; 23
      0004B4 13                    3355 	.db #0x13	; 19
      0004B5 03                    3356 	.db #0x03	; 3
      0004B6 02                    3357 	.db #0x02	; 2
      0004B7 1D                    3358 	.db #0x1d	; 29
      0004B8 1E                    3359 	.db #0x1e	; 30
      0004B9 03                    3360 	.db #0x03	; 3
      0004BA 28                    3361 	.db #0x28	; 40
      0004BB 29                    3362 	.db #0x29	; 41
      0004BC 00                    3363 	.db #0x00	; 0
      0004BD 00                    3364 	.db #0x00	; 0
      0004BE 00                    3365 	.db #0x00	; 0
      0004BF 00                    3366 	.db #0x00	; 0
      0004C0 00                    3367 	.db #0x00	; 0
      0004C1 00                    3368 	.db #0x00	; 0
      0004C2 00                    3369 	.db #0x00	; 0
      0004C3 00                    3370 	.db #0x00	; 0
      0004C4 00                    3371 	.db #0x00	; 0
      0004C5 00                    3372 	.db #0x00	; 0
      0004C6 00                    3373 	.db #0x00	; 0
      0004C7 00                    3374 	.db #0x00	; 0
      0004C8 14                    3375 	.db #0x14	; 20
      0004C9 02                    3376 	.db #0x02	; 2
      0004CA 04                    3377 	.db #0x04	; 4
      0004CB 45                    3378 	.db #0x45	; 69	'E'
      0004CC 37                    3379 	.db #0x37	; 55	'7'
      0004CD 1E                    3380 	.db #0x1e	; 30
      0004CE 2A                    3381 	.db #0x2a	; 42
      0004CF 2B                    3382 	.db #0x2b	; 43
      0004D0 00                    3383 	.db #0x00	; 0
      0004D1 00                    3384 	.db #0x00	; 0
      0004D2 00                    3385 	.db #0x00	; 0
      0004D3 00                    3386 	.db #0x00	; 0
      0004D4 00                    3387 	.db #0x00	; 0
      0004D5 00                    3388 	.db #0x00	; 0
      0004D6 00                    3389 	.db #0x00	; 0
      0004D7 00                    3390 	.db #0x00	; 0
      0004D8 00                    3391 	.db #0x00	; 0
      0004D9 00                    3392 	.db #0x00	; 0
      0004DA 00                    3393 	.db #0x00	; 0
      0004DB 00                    3394 	.db #0x00	; 0
      0004DC 0F                    3395 	.db #0x0f	; 15
      0004DD 04                    3396 	.db #0x04	; 4
      0004DE 05                    3397 	.db #0x05	; 5
      0004DF 45                    3398 	.db #0x45	; 69	'E'
      0004E0 05                    3399 	.db #0x05	; 5
      0004E1 37                    3400 	.db #0x37	; 55	'7'
      0004E2 0F                    3401 	.db #0x0f	; 15
      0004E3 0F                    3402 	.db #0x0f	; 15
      0004E4 03                    3403 	.db #0x03	; 3
      0004E5 00                    3404 	.db #0x00	; 0
      0004E6 00                    3405 	.db #0x00	; 0
      0004E7 00                    3406 	.db #0x00	; 0
      0004E8 00                    3407 	.db #0x00	; 0
      0004E9 00                    3408 	.db #0x00	; 0
      0004EA 00                    3409 	.db #0x00	; 0
      0004EB 00                    3410 	.db #0x00	; 0
      0004EC 00                    3411 	.db #0x00	; 0
      0004ED 00                    3412 	.db #0x00	; 0
      0004EE 00                    3413 	.db #0x00	; 0
      0004EF 03                    3414 	.db #0x03	; 3
      0004F0 0F                    3415 	.db #0x0f	; 15
      0004F1 05                    3416 	.db #0x05	; 5
      0004F2 09                    3417 	.db #0x09	; 9
      0004F3 06                    3418 	.db #0x06	; 6
      0004F4 0C                    3419 	.db #0x0c	; 12
      0004F5 05                    3420 	.db #0x05	; 5
      0004F6 0F                    3421 	.db #0x0f	; 15
      0004F7 0F                    3422 	.db #0x0f	; 15
      0004F8 1E                    3423 	.db #0x1e	; 30
      0004F9 21                    3424 	.db #0x21	; 33
      0004FA 00                    3425 	.db #0x00	; 0
      0004FB 00                    3426 	.db #0x00	; 0
      0004FC 00                    3427 	.db #0x00	; 0
      0004FD 00                    3428 	.db #0x00	; 0
      0004FE 00                    3429 	.db #0x00	; 0
      0004FF 00                    3430 	.db #0x00	; 0
      000500 00                    3431 	.db #0x00	; 0
      000501 00                    3432 	.db #0x00	; 0
      000502 03                    3433 	.db #0x03	; 3
      000503 02                    3434 	.db #0x02	; 2
      000504 0F                    3435 	.db #0x0f	; 15
      000505 45                    3436 	.db #0x45	; 69	'E'
      000506 0A                    3437 	.db #0x0a	; 10
      000507 07                    3438 	.db #0x07	; 7
      000508 0D                    3439 	.db #0x0d	; 13
      000509 45                    3440 	.db #0x45	; 69	'E'
      00050A 0F                    3441 	.db #0x0f	; 15
      00050B 0F                    3442 	.db #0x0f	; 15
      00050C 1F                    3443 	.db #0x1f	; 31
      00050D 22                    3444 	.db #0x22	; 34
      00050E 00                    3445 	.db #0x00	; 0
      00050F 00                    3446 	.db #0x00	; 0
      000510 00                    3447 	.db #0x00	; 0
      000511 00                    3448 	.db #0x00	; 0
      000512 00                    3449 	.db #0x00	; 0
      000513 00                    3450 	.db #0x00	; 0
      000514 00                    3451 	.db #0x00	; 0
      000515 00                    3452 	.db #0x00	; 0
      000516 02                    3453 	.db #0x02	; 2
      000517 04                    3454 	.db #0x04	; 4
      000518 0F                    3455 	.db #0x0f	; 15
      000519 45                    3456 	.db #0x45	; 69	'E'
      00051A 0B                    3457 	.db #0x0b	; 11
      00051B 08                    3458 	.db #0x08	; 8
      00051C 0E                    3459 	.db #0x0e	; 14
      00051D 45                    3460 	.db #0x45	; 69	'E'
      00051E 0F                    3461 	.db #0x0f	; 15
      00051F 0F                    3462 	.db #0x0f	; 15
      000520 20                    3463 	.db #0x20	; 32
      000521 00                    3464 	.db #0x00	; 0
      000522 00                    3465 	.db #0x00	; 0
      000523 00                    3466 	.db #0x00	; 0
      000524 00                    3467 	.db #0x00	; 0
      000525 00                    3468 	.db #0x00	; 0
      000526 00                    3469 	.db #0x00	; 0
      000527 00                    3470 	.db #0x00	; 0
      000528 03                    3471 	.db #0x03	; 3
      000529 00                    3472 	.db #0x00	; 0
      00052A 34                    3473 	.db #0x34	; 52	'4'
      00052B 05                    3474 	.db #0x05	; 5
      00052C 0F                    3475 	.db #0x0f	; 15
      00052D 45                    3476 	.db #0x45	; 69	'E'
      00052E 45                    3477 	.db #0x45	; 69	'E'
      00052F 45                    3478 	.db #0x45	; 69	'E'
      000530 45                    3479 	.db #0x45	; 69	'E'
      000531 45                    3480 	.db #0x45	; 69	'E'
      000532 0F                    3481 	.db #0x0f	; 15
      000533 0F                    3482 	.db #0x0f	; 15
      000534 00                    3483 	.db #0x00	; 0
      000535 00                    3484 	.db #0x00	; 0
      000536 00                    3485 	.db #0x00	; 0
      000537 00                    3486 	.db #0x00	; 0
      000538 00                    3487 	.db #0x00	; 0
      000539 00                    3488 	.db #0x00	; 0
      00053A 00                    3489 	.db #0x00	; 0
      00053B 00                    3490 	.db #0x00	; 0
      00053C 02                    3491 	.db #0x02	; 2
      00053D 2C                    3492 	.db #0x2c	; 44
      00053E 45                    3493 	.db #0x45	; 69	'E'
      00053F 0F                    3494 	.db #0x0f	; 15
      000540 0F                    3495 	.db #0x0f	; 15
      000541 45                    3496 	.db #0x45	; 69	'E'
      000542 45                    3497 	.db #0x45	; 69	'E'
      000543 45                    3498 	.db #0x45	; 69	'E'
      000544 45                    3499 	.db #0x45	; 69	'E'
      000545 45                    3500 	.db #0x45	; 69	'E'
      000546 0F                    3501 	.db #0x0f	; 15
      000547 0F                    3502 	.db #0x0f	; 15
      000548 00                    3503 	.db #0x00	; 0
      000549 00                    3504 	.db #0x00	; 0
      00054A 00                    3505 	.db #0x00	; 0
      00054B 00                    3506 	.db #0x00	; 0
      00054C 00                    3507 	.db #0x00	; 0
      00054D 00                    3508 	.db #0x00	; 0
      00054E 00                    3509 	.db #0x00	; 0
      00054F 00                    3510 	.db #0x00	; 0
      000550 31                    3511 	.db #0x31	; 49	'1'
      000551 2D                    3512 	.db #0x2d	; 45
      000552 2F                    3513 	.db #0x2f	; 47
      000553 0F                    3514 	.db #0x0f	; 15
      000554 0F                    3515 	.db #0x0f	; 15
      000555 45                    3516 	.db #0x45	; 69	'E'
      000556 39                    3517 	.db #0x39	; 57	'9'
      000557 38                    3518 	.db #0x38	; 56	'8'
      000558 3E                    3519 	.db #0x3e	; 62
      000559 45                    3520 	.db #0x45	; 69	'E'
      00055A 0F                    3521 	.db #0x0f	; 15
      00055B 0F                    3522 	.db #0x0f	; 15
      00055C 00                    3523 	.db #0x00	; 0
      00055D 00                    3524 	.db #0x00	; 0
      00055E 00                    3525 	.db #0x00	; 0
      00055F 00                    3526 	.db #0x00	; 0
      000560 00                    3527 	.db #0x00	; 0
      000561 00                    3528 	.db #0x00	; 0
      000562 00                    3529 	.db #0x00	; 0
      000563 33                    3530 	.db #0x33	; 51	'3'
      000564 32                    3531 	.db #0x32	; 50	'2'
      000565 2E                    3532 	.db #0x2e	; 46
      000566 30                    3533 	.db #0x30	; 48	'0'
      000567 0F                    3534 	.db #0x0f	; 15
      000568 0F                    3535 	.db #0x0f	; 15
      000569 45                    3536 	.db #0x45	; 69	'E'
      00056A 3A                    3537 	.db #0x3a	; 58
      00056B 43                    3538 	.db #0x43	; 67	'C'
      00056C 3F                    3539 	.db #0x3f	; 63
      00056D 45                    3540 	.db #0x45	; 69	'E'
      00056E 0F                    3541 	.db #0x0f	; 15
      00056F 0F                    3542 	.db #0x0f	; 15
      000570 00                    3543 	.db #0x00	; 0
      000571 00                    3544 	.db #0x00	; 0
      000572 00                    3545 	.db #0x00	; 0
      000573 00                    3546 	.db #0x00	; 0
      000574 00                    3547 	.db #0x00	; 0
      000575 00                    3548 	.db #0x00	; 0
      000576 35                    3549 	.db #0x35	; 53	'5'
      000577 46                    3550 	.db #0x46	; 70	'F'
      000578 45                    3551 	.db #0x45	; 69	'E'
      000579 45                    3552 	.db #0x45	; 69	'E'
      00057A 45                    3553 	.db #0x45	; 69	'E'
      00057B 0F                    3554 	.db #0x0f	; 15
      00057C 0F                    3555 	.db #0x0f	; 15
      00057D 45                    3556 	.db #0x45	; 69	'E'
      00057E 3B                    3557 	.db #0x3b	; 59
      00057F 43                    3558 	.db #0x43	; 67	'C'
      000580 40                    3559 	.db #0x40	; 64
      000581 45                    3560 	.db #0x45	; 69	'E'
      000582 0F                    3561 	.db #0x0f	; 15
      000583 0F                    3562 	.db #0x0f	; 15
      000584 00                    3563 	.db #0x00	; 0
      000585 00                    3564 	.db #0x00	; 0
      000586 00                    3565 	.db #0x00	; 0
      000587 00                    3566 	.db #0x00	; 0
      000588 00                    3567 	.db #0x00	; 0
      000589 00                    3568 	.db #0x00	; 0
      00058A 36                    3569 	.db #0x36	; 54	'6'
      00058B 46                    3570 	.db #0x46	; 70	'F'
      00058C 45                    3571 	.db #0x45	; 69	'E'
      00058D 45                    3572 	.db #0x45	; 69	'E'
      00058E 45                    3573 	.db #0x45	; 69	'E'
      00058F 0F                    3574 	.db #0x0f	; 15
      000590 0F                    3575 	.db #0x0f	; 15
      000591 45                    3576 	.db #0x45	; 69	'E'
      000592 3C                    3577 	.db #0x3c	; 60
      000593 43                    3578 	.db #0x43	; 67	'C'
      000594 41                    3579 	.db #0x41	; 65	'A'
      000595 45                    3580 	.db #0x45	; 69	'E'
      000596 0F                    3581 	.db #0x0f	; 15
      000597 0F                    3582 	.db #0x0f	; 15
      000598 00                    3583 	.db #0x00	; 0
      000599 00                    3584 	.db #0x00	; 0
      00059A 00                    3585 	.db #0x00	; 0
      00059B 00                    3586 	.db #0x00	; 0
      00059C 44                    3587 	.db #0x44	; 68	'D'
      00059D 44                    3588 	.db #0x44	; 68	'D'
      00059E 44                    3589 	.db #0x44	; 68	'D'
      00059F 44                    3590 	.db #0x44	; 68	'D'
      0005A0 44                    3591 	.db #0x44	; 68	'D'
      0005A1 44                    3592 	.db #0x44	; 68	'D'
      0005A2 44                    3593 	.db #0x44	; 68	'D'
      0005A3 44                    3594 	.db #0x44	; 68	'D'
      0005A4 44                    3595 	.db #0x44	; 68	'D'
      0005A5 44                    3596 	.db #0x44	; 68	'D'
      0005A6 44                    3597 	.db #0x44	; 68	'D'
      0005A7 44                    3598 	.db #0x44	; 68	'D'
      0005A8 44                    3599 	.db #0x44	; 68	'D'
      0005A9 44                    3600 	.db #0x44	; 68	'D'
      0005AA 44                    3601 	.db #0x44	; 68	'D'
      0005AB 44                    3602 	.db #0x44	; 68	'D'
      0005AC 44                    3603 	.db #0x44	; 68	'D'
      0005AD 44                    3604 	.db #0x44	; 68	'D'
      0005AE 44                    3605 	.db #0x44	; 68	'D'
      0005AF 44                    3606 	.db #0x44	; 68	'D'
      0005B0 01                    3607 	.db #0x01	; 1
      0005B1 01                    3608 	.db #0x01	; 1
      0005B2 01                    3609 	.db #0x01	; 1
      0005B3 01                    3610 	.db #0x01	; 1
      0005B4 01                    3611 	.db #0x01	; 1
      0005B5 01                    3612 	.db #0x01	; 1
      0005B6 01                    3613 	.db #0x01	; 1
      0005B7 01                    3614 	.db #0x01	; 1
      0005B8 01                    3615 	.db #0x01	; 1
      0005B9 01                    3616 	.db #0x01	; 1
      0005BA 01                    3617 	.db #0x01	; 1
      0005BB 01                    3618 	.db #0x01	; 1
      0005BC 01                    3619 	.db #0x01	; 1
      0005BD 01                    3620 	.db #0x01	; 1
      0005BE 01                    3621 	.db #0x01	; 1
      0005BF 01                    3622 	.db #0x01	; 1
      0005C0 01                    3623 	.db #0x01	; 1
      0005C1 01                    3624 	.db #0x01	; 1
      0005C2 01                    3625 	.db #0x01	; 1
      0005C3 01                    3626 	.db #0x01	; 1
      0005C4 01                    3627 	.db #0x01	; 1
      0005C5 01                    3628 	.db #0x01	; 1
      0005C6 01                    3629 	.db #0x01	; 1
      0005C7 01                    3630 	.db #0x01	; 1
      0005C8 01                    3631 	.db #0x01	; 1
      0005C9 01                    3632 	.db #0x01	; 1
      0005CA 01                    3633 	.db #0x01	; 1
      0005CB 01                    3634 	.db #0x01	; 1
      0005CC 01                    3635 	.db #0x01	; 1
      0005CD 01                    3636 	.db #0x01	; 1
      0005CE 01                    3637 	.db #0x01	; 1
      0005CF 01                    3638 	.db #0x01	; 1
      0005D0 01                    3639 	.db #0x01	; 1
      0005D1 01                    3640 	.db #0x01	; 1
      0005D2 01                    3641 	.db #0x01	; 1
      0005D3 01                    3642 	.db #0x01	; 1
      0005D4 01                    3643 	.db #0x01	; 1
      0005D5 01                    3644 	.db #0x01	; 1
      0005D6 01                    3645 	.db #0x01	; 1
      0005D7 01                    3646 	.db #0x01	; 1
      0005D8                       3647 __xinit__sprites:
      0005D8 00                    3648 	.db #0x00	; 0
      0005D9 07                    3649 	.db #0x07	; 7
      0005DA 05                    3650 	.db #0x05	; 5
      0005DB 0F                    3651 	.db #0x0f	; 15
      0005DC 03                    3652 	.db #0x03	; 3
      0005DD 0E                    3653 	.db #0x0e	; 14
      0005DE 07                    3654 	.db #0x07	; 7
      0005DF 0C                    3655 	.db #0x0c	; 12
      0005E0 03                    3656 	.db #0x03	; 3
      0005E1 0E                    3657 	.db #0x0e	; 14
      0005E2 01                    3658 	.db #0x01	; 1
      0005E3 0F                    3659 	.db #0x0f	; 15
      0005E4 03                    3660 	.db #0x03	; 3
      0005E5 0F                    3661 	.db #0x0f	; 15
      0005E6 03                    3662 	.db #0x03	; 3
      0005E7 0C                    3663 	.db #0x0c	; 12
      0005E8 03                    3664 	.db #0x03	; 3
      0005E9 0D                    3665 	.db #0x0d	; 13
      0005EA 03                    3666 	.db #0x03	; 3
      0005EB 1F                    3667 	.db #0x1f	; 31
      0005EC 03                    3668 	.db #0x03	; 3
      0005ED 04                    3669 	.db #0x04	; 4
      0005EE 03                    3670 	.db #0x03	; 3
      0005EF 03                    3671 	.db #0x03	; 3
      0005F0 03                    3672 	.db #0x03	; 3
      0005F1 03                    3673 	.db #0x03	; 3
      0005F2 02                    3674 	.db #0x02	; 2
      0005F3 02                    3675 	.db #0x02	; 2
      0005F4 02                    3676 	.db #0x02	; 2
      0005F5 02                    3677 	.db #0x02	; 2
      0005F6 03                    3678 	.db #0x03	; 3
      0005F7 03                    3679 	.db #0x03	; 3
      0005F8 00                    3680 	.db #0x00	; 0
      0005F9 E0                    3681 	.db #0xe0	; 224
      0005FA 00                    3682 	.db #0x00	; 0
      0005FB F0                    3683 	.db #0xf0	; 240
      0005FC E0                    3684 	.db #0xe0	; 224
      0005FD 10                    3685 	.db #0x10	; 16
      0005FE 40                    3686 	.db #0x40	; 64
      0005FF B0                    3687 	.db #0xb0	; 176
      000600 E0                    3688 	.db #0xe0	; 224
      000601 10                    3689 	.db #0x10	; 16
      000602 E0                    3690 	.db #0xe0	; 224
      000603 30                    3691 	.db #0x30	; 48	'0'
      000604 B0                    3692 	.db #0xb0	; 176
      000605 F0                    3693 	.db #0xf0	; 240
      000606 B8                    3694 	.db #0xb8	; 184
      000607 E0                    3695 	.db #0xe0	; 224
      000608 B0                    3696 	.db #0xb0	; 176
      000609 E0                    3697 	.db #0xe0	; 224
      00060A B0                    3698 	.db #0xb0	; 176
      00060B F0                    3699 	.db #0xf0	; 240
      00060C F0                    3700 	.db #0xf0	; 240
      00060D 00                    3701 	.db #0x00	; 0
      00060E F0                    3702 	.db #0xf0	; 240
      00060F F0                    3703 	.db #0xf0	; 240
      000610 30                    3704 	.db #0x30	; 48	'0'
      000611 30                    3705 	.db #0x30	; 48	'0'
      000612 20                    3706 	.db #0x20	; 32
      000613 20                    3707 	.db #0x20	; 32
      000614 20                    3708 	.db #0x20	; 32
      000615 20                    3709 	.db #0x20	; 32
      000616 30                    3710 	.db #0x30	; 48	'0'
      000617 30                    3711 	.db #0x30	; 48	'0'
      000618 00                    3712 	.db #0x00	; 0
      000619 07                    3713 	.db #0x07	; 7
      00061A 02                    3714 	.db #0x02	; 2
      00061B 0F                    3715 	.db #0x0f	; 15
      00061C 01                    3716 	.db #0x01	; 1
      00061D 0F                    3717 	.db #0x0f	; 15
      00061E 03                    3718 	.db #0x03	; 3
      00061F 0E                    3719 	.db #0x0e	; 14
      000620 00                    3720 	.db #0x00	; 0
      000621 0F                    3721 	.db #0x0f	; 15
      000622 01                    3722 	.db #0x01	; 1
      000623 0F                    3723 	.db #0x0f	; 15
      000624 01                    3724 	.db #0x01	; 1
      000625 0F                    3725 	.db #0x0f	; 15
      000626 01                    3726 	.db #0x01	; 1
      000627 0E                    3727 	.db #0x0e	; 14
      000628 01                    3728 	.db #0x01	; 1
      000629 0E                    3729 	.db #0x0e	; 14
      00062A 01                    3730 	.db #0x01	; 1
      00062B 1F                    3731 	.db #0x1f	; 31
      00062C 01                    3732 	.db #0x01	; 1
      00062D 06                    3733 	.db #0x06	; 6
      00062E 03                    3734 	.db #0x03	; 3
      00062F 03                    3735 	.db #0x03	; 3
      000630 07                    3736 	.db #0x07	; 7
      000631 07                    3737 	.db #0x07	; 7
      000632 06                    3738 	.db #0x06	; 6
      000633 06                    3739 	.db #0x06	; 6
      000634 04                    3740 	.db #0x04	; 4
      000635 04                    3741 	.db #0x04	; 4
      000636 06                    3742 	.db #0x06	; 6
      000637 06                    3743 	.db #0x06	; 6
      000638 00                    3744 	.db #0x00	; 0
      000639 E0                    3745 	.db #0xe0	; 224
      00063A 80                    3746 	.db #0x80	; 128
      00063B E0                    3747 	.db #0xe0	; 224
      00063C E0                    3748 	.db #0xe0	; 224
      00063D 00                    3749 	.db #0x00	; 0
      00063E A0                    3750 	.db #0xa0	; 160
      00063F 40                    3751 	.db #0x40	; 64
      000640 E0                    3752 	.db #0xe0	; 224
      000641 00                    3753 	.db #0x00	; 0
      000642 C0                    3754 	.db #0xc0	; 192
      000643 80                    3755 	.db #0x80	; 128
      000644 C0                    3756 	.db #0xc0	; 192
      000645 E0                    3757 	.db #0xe0	; 224
      000646 D0                    3758 	.db #0xd0	; 208
      000647 60                    3759 	.db #0x60	; 96
      000648 C0                    3760 	.db #0xc0	; 192
      000649 E0                    3761 	.db #0xe0	; 224
      00064A C0                    3762 	.db #0xc0	; 192
      00064B E0                    3763 	.db #0xe0	; 224
      00064C E0                    3764 	.db #0xe0	; 224
      00064D 00                    3765 	.db #0x00	; 0
      00064E E0                    3766 	.db #0xe0	; 224
      00064F E0                    3767 	.db #0xe0	; 224
      000650 60                    3768 	.db #0x60	; 96
      000651 60                    3769 	.db #0x60	; 96
      000652 20                    3770 	.db #0x20	; 32
      000653 20                    3771 	.db #0x20	; 32
      000654 30                    3772 	.db #0x30	; 48	'0'
      000655 30                    3773 	.db #0x30	; 48	'0'
      000656 00                    3774 	.db #0x00	; 0
      000657 00                    3775 	.db #0x00	; 0
      000658 00                    3776 	.db #0x00	; 0
      000659 07                    3777 	.db #0x07	; 7
      00065A 02                    3778 	.db #0x02	; 2
      00065B 0F                    3779 	.db #0x0f	; 15
      00065C 01                    3780 	.db #0x01	; 1
      00065D 0F                    3781 	.db #0x0f	; 15
      00065E 03                    3782 	.db #0x03	; 3
      00065F 0E                    3783 	.db #0x0e	; 14
      000660 00                    3784 	.db #0x00	; 0
      000661 0F                    3785 	.db #0x0f	; 15
      000662 01                    3786 	.db #0x01	; 1
      000663 0F                    3787 	.db #0x0f	; 15
      000664 01                    3788 	.db #0x01	; 1
      000665 0F                    3789 	.db #0x0f	; 15
      000666 01                    3790 	.db #0x01	; 1
      000667 0E                    3791 	.db #0x0e	; 14
      000668 01                    3792 	.db #0x01	; 1
      000669 0E                    3793 	.db #0x0e	; 14
      00066A 01                    3794 	.db #0x01	; 1
      00066B 1F                    3795 	.db #0x1f	; 31
      00066C 01                    3796 	.db #0x01	; 1
      00066D 06                    3797 	.db #0x06	; 6
      00066E 03                    3798 	.db #0x03	; 3
      00066F 03                    3799 	.db #0x03	; 3
      000670 03                    3800 	.db #0x03	; 3
      000671 03                    3801 	.db #0x03	; 3
      000672 03                    3802 	.db #0x03	; 3
      000673 03                    3803 	.db #0x03	; 3
      000674 03                    3804 	.db #0x03	; 3
      000675 03                    3805 	.db #0x03	; 3
      000676 02                    3806 	.db #0x02	; 2
      000677 02                    3807 	.db #0x02	; 2
      000678 00                    3808 	.db #0x00	; 0
      000679 E0                    3809 	.db #0xe0	; 224
      00067A 80                    3810 	.db #0x80	; 128
      00067B E0                    3811 	.db #0xe0	; 224
      00067C E0                    3812 	.db #0xe0	; 224
      00067D 00                    3813 	.db #0x00	; 0
      00067E A0                    3814 	.db #0xa0	; 160
      00067F 40                    3815 	.db #0x40	; 64
      000680 E0                    3816 	.db #0xe0	; 224
      000681 00                    3817 	.db #0x00	; 0
      000682 C0                    3818 	.db #0xc0	; 192
      000683 80                    3819 	.db #0x80	; 128
      000684 C0                    3820 	.db #0xc0	; 192
      000685 E0                    3821 	.db #0xe0	; 224
      000686 D0                    3822 	.db #0xd0	; 208
      000687 60                    3823 	.db #0x60	; 96
      000688 C0                    3824 	.db #0xc0	; 192
      000689 E0                    3825 	.db #0xe0	; 224
      00068A C0                    3826 	.db #0xc0	; 192
      00068B E0                    3827 	.db #0xe0	; 224
      00068C E0                    3828 	.db #0xe0	; 224
      00068D 00                    3829 	.db #0x00	; 0
      00068E E0                    3830 	.db #0xe0	; 224
      00068F E0                    3831 	.db #0xe0	; 224
      000690 A0                    3832 	.db #0xa0	; 160
      000691 A0                    3833 	.db #0xa0	; 160
      000692 20                    3834 	.db #0x20	; 32
      000693 20                    3835 	.db #0x20	; 32
      000694 20                    3836 	.db #0x20	; 32
      000695 20                    3837 	.db #0x20	; 32
      000696 30                    3838 	.db #0x30	; 48	'0'
      000697 30                    3839 	.db #0x30	; 48	'0'
      000698 00                    3840 	.db #0x00	; 0
      000699 00                    3841 	.db #0x00	; 0
      00069A 00                    3842 	.db #0x00	; 0
      00069B 07                    3843 	.db #0x07	; 7
      00069C 02                    3844 	.db #0x02	; 2
      00069D 0F                    3845 	.db #0x0f	; 15
      00069E 01                    3846 	.db #0x01	; 1
      00069F 0F                    3847 	.db #0x0f	; 15
      0006A0 03                    3848 	.db #0x03	; 3
      0006A1 0E                    3849 	.db #0x0e	; 14
      0006A2 00                    3850 	.db #0x00	; 0
      0006A3 0F                    3851 	.db #0x0f	; 15
      0006A4 01                    3852 	.db #0x01	; 1
      0006A5 0F                    3853 	.db #0x0f	; 15
      0006A6 01                    3854 	.db #0x01	; 1
      0006A7 0F                    3855 	.db #0x0f	; 15
      0006A8 01                    3856 	.db #0x01	; 1
      0006A9 0E                    3857 	.db #0x0e	; 14
      0006AA 01                    3858 	.db #0x01	; 1
      0006AB 0E                    3859 	.db #0x0e	; 14
      0006AC 01                    3860 	.db #0x01	; 1
      0006AD 1F                    3861 	.db #0x1f	; 31
      0006AE 01                    3862 	.db #0x01	; 1
      0006AF 06                    3863 	.db #0x06	; 6
      0006B0 03                    3864 	.db #0x03	; 3
      0006B1 03                    3865 	.db #0x03	; 3
      0006B2 03                    3866 	.db #0x03	; 3
      0006B3 03                    3867 	.db #0x03	; 3
      0006B4 06                    3868 	.db #0x06	; 6
      0006B5 06                    3869 	.db #0x06	; 6
      0006B6 04                    3870 	.db #0x04	; 4
      0006B7 04                    3871 	.db #0x04	; 4
      0006B8 00                    3872 	.db #0x00	; 0
      0006B9 00                    3873 	.db #0x00	; 0
      0006BA 00                    3874 	.db #0x00	; 0
      0006BB E0                    3875 	.db #0xe0	; 224
      0006BC 80                    3876 	.db #0x80	; 128
      0006BD E0                    3877 	.db #0xe0	; 224
      0006BE E0                    3878 	.db #0xe0	; 224
      0006BF 00                    3879 	.db #0x00	; 0
      0006C0 A0                    3880 	.db #0xa0	; 160
      0006C1 40                    3881 	.db #0x40	; 64
      0006C2 E0                    3882 	.db #0xe0	; 224
      0006C3 00                    3883 	.db #0x00	; 0
      0006C4 C0                    3884 	.db #0xc0	; 192
      0006C5 80                    3885 	.db #0x80	; 128
      0006C6 C0                    3886 	.db #0xc0	; 192
      0006C7 E0                    3887 	.db #0xe0	; 224
      0006C8 D0                    3888 	.db #0xd0	; 208
      0006C9 60                    3889 	.db #0x60	; 96
      0006CA C0                    3890 	.db #0xc0	; 192
      0006CB E0                    3891 	.db #0xe0	; 224
      0006CC C0                    3892 	.db #0xc0	; 192
      0006CD E0                    3893 	.db #0xe0	; 224
      0006CE E0                    3894 	.db #0xe0	; 224
      0006CF 00                    3895 	.db #0x00	; 0
      0006D0 E0                    3896 	.db #0xe0	; 224
      0006D1 E0                    3897 	.db #0xe0	; 224
      0006D2 60                    3898 	.db #0x60	; 96
      0006D3 60                    3899 	.db #0x60	; 96
      0006D4 40                    3900 	.db #0x40	; 64
      0006D5 40                    3901 	.db #0x40	; 64
      0006D6 60                    3902 	.db #0x60	; 96
      0006D7 60                    3903 	.db #0x60	; 96
      0006D8 00                    3904 	.db #0x00	; 0
      0006D9 00                    3905 	.db #0x00	; 0
      0006DA 00                    3906 	.db #0x00	; 0
      0006DB 00                    3907 	.db #0x00	; 0
      0006DC 01                    3908 	.db #0x01	; 1
      0006DD 03                    3909 	.db #0x03	; 3
      0006DE 03                    3910 	.db #0x03	; 3
      0006DF 06                    3911 	.db #0x06	; 6
      0006E0 05                    3912 	.db #0x05	; 5
      0006E1 0E                    3913 	.db #0x0e	; 14
      0006E2 03                    3914 	.db #0x03	; 3
      0006E3 0E                    3915 	.db #0x0e	; 14
      0006E4 05                    3916 	.db #0x05	; 5
      0006E5 0F                    3917 	.db #0x0f	; 15
      0006E6 03                    3918 	.db #0x03	; 3
      0006E7 0F                    3919 	.db #0x0f	; 15
      0006E8 03                    3920 	.db #0x03	; 3
      0006E9 0C                    3921 	.db #0x0c	; 12
      0006EA 03                    3922 	.db #0x03	; 3
      0006EB 0D                    3923 	.db #0x0d	; 13
      0006EC 03                    3924 	.db #0x03	; 3
      0006ED 0F                    3925 	.db #0x0f	; 15
      0006EE 03                    3926 	.db #0x03	; 3
      0006EF 0C                    3927 	.db #0x0c	; 12
      0006F0 03                    3928 	.db #0x03	; 3
      0006F1 0F                    3929 	.db #0x0f	; 15
      0006F2 03                    3930 	.db #0x03	; 3
      0006F3 1F                    3931 	.db #0x1f	; 31
      0006F4 06                    3932 	.db #0x06	; 6
      0006F5 0E                    3933 	.db #0x0e	; 14
      0006F6 04                    3934 	.db #0x04	; 4
      0006F7 04                    3935 	.db #0x04	; 4
      0006F8 00                    3936 	.db #0x00	; 0
      0006F9 00                    3937 	.db #0x00	; 0
      0006FA 00                    3938 	.db #0x00	; 0
      0006FB 00                    3939 	.db #0x00	; 0
      0006FC 00                    3940 	.db #0x00	; 0
      0006FD E0                    3941 	.db #0xe0	; 224
      0006FE E0                    3942 	.db #0xe0	; 224
      0006FF 10                    3943 	.db #0x10	; 16
      000700 40                    3944 	.db #0x40	; 64
      000701 B0                    3945 	.db #0xb0	; 176
      000702 E0                    3946 	.db #0xe0	; 224
      000703 10                    3947 	.db #0x10	; 16
      000704 E0                    3948 	.db #0xe0	; 224
      000705 30                    3949 	.db #0x30	; 48	'0'
      000706 A0                    3950 	.db #0xa0	; 160
      000707 F0                    3951 	.db #0xf0	; 240
      000708 B8                    3952 	.db #0xb8	; 184
      000709 E0                    3953 	.db #0xe0	; 224
      00070A B0                    3954 	.db #0xb0	; 176
      00070B E0                    3955 	.db #0xe0	; 224
      00070C B0                    3956 	.db #0xb0	; 176
      00070D F0                    3957 	.db #0xf0	; 240
      00070E F0                    3958 	.db #0xf0	; 240
      00070F 00                    3959 	.db #0x00	; 0
      000710 F0                    3960 	.db #0xf0	; 240
      000711 F0                    3961 	.db #0xf0	; 240
      000712 30                    3962 	.db #0x30	; 48	'0'
      000713 30                    3963 	.db #0x30	; 48	'0'
      000714 60                    3964 	.db #0x60	; 96
      000715 60                    3965 	.db #0x60	; 96
      000716 40                    3966 	.db #0x40	; 64
      000717 40                    3967 	.db #0x40	; 64
      000718 00                    3968 	.db #0x00	; 0
      000719 00                    3969 	.db #0x00	; 0
      00071A 00                    3970 	.db #0x00	; 0
      00071B 00                    3971 	.db #0x00	; 0
      00071C 00                    3972 	.db #0x00	; 0
      00071D 00                    3973 	.db #0x00	; 0
      00071E 00                    3974 	.db #0x00	; 0
      00071F 00                    3975 	.db #0x00	; 0
      000720 00                    3976 	.db #0x00	; 0
      000721 00                    3977 	.db #0x00	; 0
      000722 00                    3978 	.db #0x00	; 0
      000723 00                    3979 	.db #0x00	; 0
      000724 00                    3980 	.db #0x00	; 0
      000725 00                    3981 	.db #0x00	; 0
      000726 00                    3982 	.db #0x00	; 0
      000727 00                    3983 	.db #0x00	; 0
      000728 00                    3984 	.db #0x00	; 0
      000729 00                    3985 	.db #0x00	; 0
      00072A 00                    3986 	.db #0x00	; 0
      00072B 00                    3987 	.db #0x00	; 0
      00072C 00                    3988 	.db #0x00	; 0
      00072D 00                    3989 	.db #0x00	; 0
      00072E 00                    3990 	.db #0x00	; 0
      00072F 00                    3991 	.db #0x00	; 0
      000730 00                    3992 	.db #0x00	; 0
      000731 00                    3993 	.db #0x00	; 0
      000732 00                    3994 	.db #0x00	; 0
      000733 00                    3995 	.db #0x00	; 0
      000734 00                    3996 	.db #0x00	; 0
      000735 00                    3997 	.db #0x00	; 0
      000736 00                    3998 	.db #0x00	; 0
      000737 00                    3999 	.db #0x00	; 0
      000738 18                    4000 	.db #0x18	; 24
      000739 18                    4001 	.db #0x18	; 24
      00073A 0A                    4002 	.db #0x0a	; 10
      00073B 0A                    4003 	.db #0x0a	; 10
      00073C 04                    4004 	.db #0x04	; 4
      00073D 00                    4005 	.db #0x00	; 0
      00073E 02                    4006 	.db #0x02	; 2
      00073F 02                    4007 	.db #0x02	; 2
      000740 01                    4008 	.db #0x01	; 1
      000741 03                    4009 	.db #0x03	; 3
      000742 01                    4010 	.db #0x01	; 1
      000743 03                    4011 	.db #0x03	; 3
      000744 04                    4012 	.db #0x04	; 4
      000745 04                    4013 	.db #0x04	; 4
      000746 04                    4014 	.db #0x04	; 4
      000747 04                    4015 	.db #0x04	; 4
      000748 04                    4016 	.db #0x04	; 4
      000749 04                    4017 	.db #0x04	; 4
      00074A 01                    4018 	.db #0x01	; 1
      00074B 03                    4019 	.db #0x03	; 3
      00074C 01                    4020 	.db #0x01	; 1
      00074D 03                    4021 	.db #0x03	; 3
      00074E 02                    4022 	.db #0x02	; 2
      00074F 02                    4023 	.db #0x02	; 2
      000750 04                    4024 	.db #0x04	; 4
      000751 00                    4025 	.db #0x00	; 0
      000752 0A                    4026 	.db #0x0a	; 10
      000753 0A                    4027 	.db #0x0a	; 10
      000754 18                    4028 	.db #0x18	; 24
      000755 18                    4029 	.db #0x18	; 24
      000756 00                    4030 	.db #0x00	; 0
      000757 00                    4031 	.db #0x00	; 0
      000758 00                    4032 	.db #0x00	; 0
      000759 00                    4033 	.db #0x00	; 0
      00075A 00                    4034 	.db #0x00	; 0
      00075B 00                    4035 	.db #0x00	; 0
      00075C 00                    4036 	.db #0x00	; 0
      00075D 00                    4037 	.db #0x00	; 0
      00075E 00                    4038 	.db #0x00	; 0
      00075F 00                    4039 	.db #0x00	; 0
      000760 00                    4040 	.db #0x00	; 0
      000761 00                    4041 	.db #0x00	; 0
      000762 00                    4042 	.db #0x00	; 0
      000763 00                    4043 	.db #0x00	; 0
      000764 00                    4044 	.db #0x00	; 0
      000765 00                    4045 	.db #0x00	; 0
      000766 00                    4046 	.db #0x00	; 0
      000767 00                    4047 	.db #0x00	; 0
      000768 00                    4048 	.db #0x00	; 0
      000769 00                    4049 	.db #0x00	; 0
      00076A 00                    4050 	.db #0x00	; 0
      00076B 00                    4051 	.db #0x00	; 0
      00076C 00                    4052 	.db #0x00	; 0
      00076D 00                    4053 	.db #0x00	; 0
      00076E 00                    4054 	.db #0x00	; 0
      00076F 00                    4055 	.db #0x00	; 0
      000770 00                    4056 	.db #0x00	; 0
      000771 00                    4057 	.db #0x00	; 0
      000772 00                    4058 	.db #0x00	; 0
      000773 00                    4059 	.db #0x00	; 0
      000774 00                    4060 	.db #0x00	; 0
      000775 00                    4061 	.db #0x00	; 0
      000776 00                    4062 	.db #0x00	; 0
      000777 00                    4063 	.db #0x00	; 0
      000778 00                    4064 	.db #0x00	; 0
      000779 00                    4065 	.db #0x00	; 0
      00077A 00                    4066 	.db #0x00	; 0
      00077B 00                    4067 	.db #0x00	; 0
      00077C 00                    4068 	.db #0x00	; 0
      00077D 00                    4069 	.db #0x00	; 0
      00077E 00                    4070 	.db #0x00	; 0
      00077F 00                    4071 	.db #0x00	; 0
      000780 00                    4072 	.db #0x00	; 0
      000781 00                    4073 	.db #0x00	; 0
      000782 00                    4074 	.db #0x00	; 0
      000783 00                    4075 	.db #0x00	; 0
      000784 00                    4076 	.db #0x00	; 0
      000785 00                    4077 	.db #0x00	; 0
      000786 02                    4078 	.db #0x02	; 2
      000787 00                    4079 	.db #0x00	; 0
      000788 FF                    4080 	.db #0xff	; 255
      000789 00                    4081 	.db #0x00	; 0
      00078A 02                    4082 	.db #0x02	; 2
      00078B 00                    4083 	.db #0x00	; 0
      00078C 00                    4084 	.db #0x00	; 0
      00078D 00                    4085 	.db #0x00	; 0
      00078E 00                    4086 	.db #0x00	; 0
      00078F 00                    4087 	.db #0x00	; 0
      000790 00                    4088 	.db #0x00	; 0
      000791 00                    4089 	.db #0x00	; 0
      000792 00                    4090 	.db #0x00	; 0
      000793 00                    4091 	.db #0x00	; 0
      000794 00                    4092 	.db #0x00	; 0
      000795 00                    4093 	.db #0x00	; 0
      000796 00                    4094 	.db #0x00	; 0
      000797 00                    4095 	.db #0x00	; 0
      000798 00                    4096 	.db #0x00	; 0
      000799 00                    4097 	.db #0x00	; 0
      00079A 00                    4098 	.db #0x00	; 0
      00079B 00                    4099 	.db #0x00	; 0
      00079C 00                    4100 	.db #0x00	; 0
      00079D 00                    4101 	.db #0x00	; 0
      00079E 00                    4102 	.db #0x00	; 0
      00079F 00                    4103 	.db #0x00	; 0
      0007A0 00                    4104 	.db #0x00	; 0
      0007A1 00                    4105 	.db #0x00	; 0
      0007A2 00                    4106 	.db #0x00	; 0
      0007A3 00                    4107 	.db #0x00	; 0
      0007A4 08                    4108 	.db #0x08	; 8
      0007A5 00                    4109 	.db #0x00	; 0
      0007A6 04                    4110 	.db #0x04	; 4
      0007A7 00                    4111 	.db #0x00	; 0
      0007A8 06                    4112 	.db #0x06	; 6
      0007A9 04                    4113 	.db #0x04	; 4
      0007AA 0E                    4114 	.db #0x0e	; 14
      0007AB 0E                    4115 	.db #0x0e	; 14
      0007AC 1F                    4116 	.db #0x1f	; 31
      0007AD 1B                    4117 	.db #0x1b	; 27
      0007AE 03                    4118 	.db #0x03	; 3
      0007AF 1E                    4119 	.db #0x1e	; 30
      0007B0 0F                    4120 	.db #0x0f	; 15
      0007B1 03                    4121 	.db #0x03	; 3
      0007B2 03                    4122 	.db #0x03	; 3
      0007B3 03                    4123 	.db #0x03	; 3
      0007B4 02                    4124 	.db #0x02	; 2
      0007B5 00                    4125 	.db #0x00	; 0
      0007B6 02                    4126 	.db #0x02	; 2
      0007B7 06                    4127 	.db #0x06	; 6
      0007B8 00                    4128 	.db #0x00	; 0
      0007B9 00                    4129 	.db #0x00	; 0
      0007BA 00                    4130 	.db #0x00	; 0
      0007BB 00                    4131 	.db #0x00	; 0
      0007BC 00                    4132 	.db #0x00	; 0
      0007BD 00                    4133 	.db #0x00	; 0
      0007BE 00                    4134 	.db #0x00	; 0
      0007BF 00                    4135 	.db #0x00	; 0
      0007C0 00                    4136 	.db #0x00	; 0
      0007C1 00                    4137 	.db #0x00	; 0
      0007C2 00                    4138 	.db #0x00	; 0
      0007C3 00                    4139 	.db #0x00	; 0
      0007C4 00                    4140 	.db #0x00	; 0
      0007C5 00                    4141 	.db #0x00	; 0
      0007C6 00                    4142 	.db #0x00	; 0
      0007C7 00                    4143 	.db #0x00	; 0
      0007C8 00                    4144 	.db #0x00	; 0
      0007C9 00                    4145 	.db #0x00	; 0
      0007CA 00                    4146 	.db #0x00	; 0
      0007CB 80                    4147 	.db #0x80	; 128
      0007CC 80                    4148 	.db #0x80	; 128
      0007CD 50                    4149 	.db #0x50	; 80	'P'
      0007CE D2                    4150 	.db #0xd2	; 210
      0007CF AA                    4151 	.db #0xaa	; 170
      0007D0 F9                    4152 	.db #0xf9	; 249
      0007D1 DD                    4153 	.db #0xdd	; 221
      0007D2 7C                    4154 	.db #0x7c	; 124
      0007D3 7C                    4155 	.db #0x7c	; 124
      0007D4 1C                    4156 	.db #0x1c	; 28
      0007D5 0C                    4157 	.db #0x0c	; 12
      0007D6 18                    4158 	.db #0x18	; 24
      0007D7 38                    4159 	.db #0x38	; 56	'8'
      0007D8 00                    4160 	.db #0x00	; 0
      0007D9 00                    4161 	.db #0x00	; 0
      0007DA 00                    4162 	.db #0x00	; 0
      0007DB 00                    4163 	.db #0x00	; 0
      0007DC 00                    4164 	.db #0x00	; 0
      0007DD 00                    4165 	.db #0x00	; 0
      0007DE 00                    4166 	.db #0x00	; 0
      0007DF 00                    4167 	.db #0x00	; 0
      0007E0 00                    4168 	.db #0x00	; 0
      0007E1 00                    4169 	.db #0x00	; 0
      0007E2 08                    4170 	.db #0x08	; 8
      0007E3 00                    4171 	.db #0x00	; 0
      0007E4 04                    4172 	.db #0x04	; 4
      0007E5 00                    4173 	.db #0x00	; 0
      0007E6 06                    4174 	.db #0x06	; 6
      0007E7 04                    4175 	.db #0x04	; 4
      0007E8 0E                    4176 	.db #0x0e	; 14
      0007E9 0E                    4177 	.db #0x0e	; 14
      0007EA 1F                    4178 	.db #0x1f	; 31
      0007EB 1B                    4179 	.db #0x1b	; 27
      0007EC 03                    4180 	.db #0x03	; 3
      0007ED 1E                    4181 	.db #0x1e	; 30
      0007EE 0F                    4182 	.db #0x0f	; 15
      0007EF 03                    4183 	.db #0x03	; 3
      0007F0 03                    4184 	.db #0x03	; 3
      0007F1 03                    4185 	.db #0x03	; 3
      0007F2 06                    4186 	.db #0x06	; 6
      0007F3 00                    4187 	.db #0x00	; 0
      0007F4 04                    4188 	.db #0x04	; 4
      0007F5 0C                    4189 	.db #0x0c	; 12
      0007F6 00                    4190 	.db #0x00	; 0
      0007F7 00                    4191 	.db #0x00	; 0
      0007F8 00                    4192 	.db #0x00	; 0
      0007F9 00                    4193 	.db #0x00	; 0
      0007FA 00                    4194 	.db #0x00	; 0
      0007FB 00                    4195 	.db #0x00	; 0
      0007FC 00                    4196 	.db #0x00	; 0
      0007FD 00                    4197 	.db #0x00	; 0
      0007FE 00                    4198 	.db #0x00	; 0
      0007FF 00                    4199 	.db #0x00	; 0
      000800 00                    4200 	.db #0x00	; 0
      000801 00                    4201 	.db #0x00	; 0
      000802 00                    4202 	.db #0x00	; 0
      000803 00                    4203 	.db #0x00	; 0
      000804 00                    4204 	.db #0x00	; 0
      000805 00                    4205 	.db #0x00	; 0
      000806 00                    4206 	.db #0x00	; 0
      000807 00                    4207 	.db #0x00	; 0
      000808 00                    4208 	.db #0x00	; 0
      000809 80                    4209 	.db #0x80	; 128
      00080A 80                    4210 	.db #0x80	; 128
      00080B 50                    4211 	.db #0x50	; 80	'P'
      00080C D2                    4212 	.db #0xd2	; 210
      00080D EA                    4213 	.db #0xea	; 234
      00080E F9                    4214 	.db #0xf9	; 249
      00080F DD                    4215 	.db #0xdd	; 221
      000810 7C                    4216 	.db #0x7c	; 124
      000811 7C                    4217 	.db #0x7c	; 124
      000812 0C                    4218 	.db #0x0c	; 12
      000813 0C                    4219 	.db #0x0c	; 12
      000814 02                    4220 	.db #0x02	; 2
      000815 00                    4221 	.db #0x00	; 0
      000816 02                    4222 	.db #0x02	; 2
      000817 06                    4223 	.db #0x06	; 6
      000818 00                    4224 	.db #0x00	; 0
      000819 00                    4225 	.db #0x00	; 0
      00081A 00                    4226 	.db #0x00	; 0
      00081B 00                    4227 	.db #0x00	; 0
      00081C 00                    4228 	.db #0x00	; 0
      00081D 00                    4229 	.db #0x00	; 0
      00081E 00                    4230 	.db #0x00	; 0
      00081F 00                    4231 	.db #0x00	; 0
      000820 00                    4232 	.db #0x00	; 0
      000821 00                    4233 	.db #0x00	; 0
      000822 00                    4234 	.db #0x00	; 0
      000823 00                    4235 	.db #0x00	; 0
      000824 00                    4236 	.db #0x00	; 0
      000825 00                    4237 	.db #0x00	; 0
      000826 10                    4238 	.db #0x10	; 16
      000827 00                    4239 	.db #0x00	; 0
      000828 08                    4240 	.db #0x08	; 8
      000829 00                    4241 	.db #0x00	; 0
      00082A 0C                    4242 	.db #0x0c	; 12
      00082B 08                    4243 	.db #0x08	; 8
      00082C 1C                    4244 	.db #0x1c	; 28
      00082D 1D                    4245 	.db #0x1d	; 29
      00082E 3F                    4246 	.db #0x3f	; 63
      00082F 36                    4247 	.db #0x36	; 54	'6'
      000830 07                    4248 	.db #0x07	; 7
      000831 3D                    4249 	.db #0x3d	; 61
      000832 1F                    4250 	.db #0x1f	; 31
      000833 07                    4251 	.db #0x07	; 7
      000834 06                    4252 	.db #0x06	; 6
      000835 02                    4253 	.db #0x02	; 2
      000836 02                    4254 	.db #0x02	; 2
      000837 00                    4255 	.db #0x00	; 0
      000838 00                    4256 	.db #0x00	; 0
      000839 00                    4257 	.db #0x00	; 0
      00083A 00                    4258 	.db #0x00	; 0
      00083B 00                    4259 	.db #0x00	; 0
      00083C 00                    4260 	.db #0x00	; 0
      00083D 00                    4261 	.db #0x00	; 0
      00083E 00                    4262 	.db #0x00	; 0
      00083F 00                    4263 	.db #0x00	; 0
      000840 00                    4264 	.db #0x00	; 0
      000841 00                    4265 	.db #0x00	; 0
      000842 00                    4266 	.db #0x00	; 0
      000843 00                    4267 	.db #0x00	; 0
      000844 00                    4268 	.db #0x00	; 0
      000845 00                    4269 	.db #0x00	; 0
      000846 00                    4270 	.db #0x00	; 0
      000847 00                    4271 	.db #0x00	; 0
      000848 00                    4272 	.db #0x00	; 0
      000849 00                    4273 	.db #0x00	; 0
      00084A 00                    4274 	.db #0x00	; 0
      00084B 00                    4275 	.db #0x00	; 0
      00084C 00                    4276 	.db #0x00	; 0
      00084D 00                    4277 	.db #0x00	; 0
      00084E 00                    4278 	.db #0x00	; 0
      00084F A0                    4279 	.db #0xa0	; 160
      000850 A4                    4280 	.db #0xa4	; 164
      000851 D4                    4281 	.db #0xd4	; 212
      000852 F2                    4282 	.db #0xf2	; 242
      000853 BA                    4283 	.db #0xba	; 186
      000854 F8                    4284 	.db #0xf8	; 248
      000855 E8                    4285 	.db #0xe8	; 232
      000856 10                    4286 	.db #0x10	; 16
      000857 30                    4287 	.db #0x30	; 48	'0'
      000858 00                    4288 	.db #0x00	; 0
      000859 00                    4289 	.db #0x00	; 0
      00085A 00                    4290 	.db #0x00	; 0
      00085B 00                    4291 	.db #0x00	; 0
      00085C 00                    4292 	.db #0x00	; 0
      00085D 00                    4293 	.db #0x00	; 0
      00085E 00                    4294 	.db #0x00	; 0
      00085F 00                    4295 	.db #0x00	; 0
      000860 00                    4296 	.db #0x00	; 0
      000861 00                    4297 	.db #0x00	; 0
      000862 10                    4298 	.db #0x10	; 16
      000863 00                    4299 	.db #0x00	; 0
      000864 08                    4300 	.db #0x08	; 8
      000865 00                    4301 	.db #0x00	; 0
      000866 0C                    4302 	.db #0x0c	; 12
      000867 08                    4303 	.db #0x08	; 8
      000868 1C                    4304 	.db #0x1c	; 28
      000869 1D                    4305 	.db #0x1d	; 29
      00086A 3F                    4306 	.db #0x3f	; 63
      00086B 36                    4307 	.db #0x36	; 54	'6'
      00086C 07                    4308 	.db #0x07	; 7
      00086D 3D                    4309 	.db #0x3d	; 61
      00086E 1F                    4310 	.db #0x1f	; 31
      00086F 07                    4311 	.db #0x07	; 7
      000870 06                    4312 	.db #0x06	; 6
      000871 06                    4313 	.db #0x06	; 6
      000872 01                    4314 	.db #0x01	; 1
      000873 00                    4315 	.db #0x00	; 0
      000874 00                    4316 	.db #0x00	; 0
      000875 00                    4317 	.db #0x00	; 0
      000876 00                    4318 	.db #0x00	; 0
      000877 00                    4319 	.db #0x00	; 0
      000878 00                    4320 	.db #0x00	; 0
      000879 00                    4321 	.db #0x00	; 0
      00087A 00                    4322 	.db #0x00	; 0
      00087B 00                    4323 	.db #0x00	; 0
      00087C 00                    4324 	.db #0x00	; 0
      00087D 00                    4325 	.db #0x00	; 0
      00087E 00                    4326 	.db #0x00	; 0
      00087F 00                    4327 	.db #0x00	; 0
      000880 00                    4328 	.db #0x00	; 0
      000881 00                    4329 	.db #0x00	; 0
      000882 00                    4330 	.db #0x00	; 0
      000883 00                    4331 	.db #0x00	; 0
      000884 00                    4332 	.db #0x00	; 0
      000885 00                    4333 	.db #0x00	; 0
      000886 00                    4334 	.db #0x00	; 0
      000887 00                    4335 	.db #0x00	; 0
      000888 00                    4336 	.db #0x00	; 0
      000889 00                    4337 	.db #0x00	; 0
      00088A 00                    4338 	.db #0x00	; 0
      00088B A0                    4339 	.db #0xa0	; 160
      00088C A4                    4340 	.db #0xa4	; 164
      00088D D4                    4341 	.db #0xd4	; 212
      00088E F2                    4342 	.db #0xf2	; 242
      00088F BA                    4343 	.db #0xba	; 186
      000890 F8                    4344 	.db #0xf8	; 248
      000891 F8                    4345 	.db #0xf8	; 248
      000892 18                    4346 	.db #0x18	; 24
      000893 10                    4347 	.db #0x10	; 16
      000894 04                    4348 	.db #0x04	; 4
      000895 84                    4349 	.db #0x84	; 132
      000896 04                    4350 	.db #0x04	; 4
      000897 0C                    4351 	.db #0x0c	; 12
      000898 00                    4352 	.db #0x00	; 0
      000899 00                    4353 	.db #0x00	; 0
      00089A 00                    4354 	.db #0x00	; 0
      00089B 00                    4355 	.db #0x00	; 0
      00089C 00                    4356 	.db #0x00	; 0
      00089D 00                    4357 	.db #0x00	; 0
      00089E 00                    4358 	.db #0x00	; 0
      00089F 00                    4359 	.db #0x00	; 0
      0008A0 00                    4360 	.db #0x00	; 0
      0008A1 00                    4361 	.db #0x00	; 0
      0008A2 00                    4362 	.db #0x00	; 0
      0008A3 00                    4363 	.db #0x00	; 0
      0008A4 00                    4364 	.db #0x00	; 0
      0008A5 00                    4365 	.db #0x00	; 0
      0008A6 00                    4366 	.db #0x00	; 0
      0008A7 00                    4367 	.db #0x00	; 0
      0008A8 00                    4368 	.db #0x00	; 0
      0008A9 00                    4369 	.db #0x00	; 0
      0008AA 02                    4370 	.db #0x02	; 2
      0008AB 02                    4371 	.db #0x02	; 2
      0008AC 03                    4372 	.db #0x03	; 3
      0008AD 03                    4373 	.db #0x03	; 3
      0008AE 03                    4374 	.db #0x03	; 3
      0008AF 01                    4375 	.db #0x01	; 1
      0008B0 07                    4376 	.db #0x07	; 7
      0008B1 07                    4377 	.db #0x07	; 7
      0008B2 01                    4378 	.db #0x01	; 1
      0008B3 01                    4379 	.db #0x01	; 1
      0008B4 01                    4380 	.db #0x01	; 1
      0008B5 01                    4381 	.db #0x01	; 1
      0008B6 03                    4382 	.db #0x03	; 3
      0008B7 01                    4383 	.db #0x01	; 1
      0008B8 00                    4384 	.db #0x00	; 0
      0008B9 00                    4385 	.db #0x00	; 0
      0008BA 00                    4386 	.db #0x00	; 0
      0008BB 00                    4387 	.db #0x00	; 0
      0008BC 00                    4388 	.db #0x00	; 0
      0008BD 00                    4389 	.db #0x00	; 0
      0008BE 00                    4390 	.db #0x00	; 0
      0008BF 00                    4391 	.db #0x00	; 0
      0008C0 00                    4392 	.db #0x00	; 0
      0008C1 00                    4393 	.db #0x00	; 0
      0008C2 00                    4394 	.db #0x00	; 0
      0008C3 00                    4395 	.db #0x00	; 0
      0008C4 00                    4396 	.db #0x00	; 0
      0008C5 00                    4397 	.db #0x00	; 0
      0008C6 00                    4398 	.db #0x00	; 0
      0008C7 00                    4399 	.db #0x00	; 0
      0008C8 00                    4400 	.db #0x00	; 0
      0008C9 00                    4401 	.db #0x00	; 0
      0008CA 00                    4402 	.db #0x00	; 0
      0008CB 00                    4403 	.db #0x00	; 0
      0008CC 70                    4404 	.db #0x70	; 112	'p'
      0008CD 00                    4405 	.db #0x00	; 0
      0008CE F8                    4406 	.db #0xf8	; 248
      0008CF F3                    4407 	.db #0xf3	; 243
      0008D0 DC                    4408 	.db #0xdc	; 220
      0008D1 FB                    4409 	.db #0xfb	; 251
      0008D2 E4                    4410 	.db #0xe4	; 228
      0008D3 FC                    4411 	.db #0xfc	; 252
      0008D4 9C                    4412 	.db #0x9c	; 156
      0008D5 9C                    4413 	.db #0x9c	; 156
      0008D6 38                    4414 	.db #0x38	; 56	'8'
      0008D7 18                    4415 	.db #0x18	; 24
      0008D8 00                    4416 	.db #0x00	; 0
      0008D9 00                    4417 	.db #0x00	; 0
      0008DA 00                    4418 	.db #0x00	; 0
      0008DB 00                    4419 	.db #0x00	; 0
      0008DC 00                    4420 	.db #0x00	; 0
      0008DD 00                    4421 	.db #0x00	; 0
      0008DE 00                    4422 	.db #0x00	; 0
      0008DF 00                    4423 	.db #0x00	; 0
      0008E0 00                    4424 	.db #0x00	; 0
      0008E1 00                    4425 	.db #0x00	; 0
      0008E2 00                    4426 	.db #0x00	; 0
      0008E3 00                    4427 	.db #0x00	; 0
      0008E4 00                    4428 	.db #0x00	; 0
      0008E5 00                    4429 	.db #0x00	; 0
      0008E6 00                    4430 	.db #0x00	; 0
      0008E7 00                    4431 	.db #0x00	; 0
      0008E8 00                    4432 	.db #0x00	; 0
      0008E9 00                    4433 	.db #0x00	; 0
      0008EA 00                    4434 	.db #0x00	; 0
      0008EB 00                    4435 	.db #0x00	; 0
      0008EC 00                    4436 	.db #0x00	; 0
      0008ED 00                    4437 	.db #0x00	; 0
      0008EE 18                    4438 	.db #0x18	; 24
      0008EF 18                    4439 	.db #0x18	; 24
      0008F0 1D                    4440 	.db #0x1d	; 29
      0008F1 0C                    4441 	.db #0x0c	; 12
      0008F2 07                    4442 	.db #0x07	; 7
      0008F3 1C                    4443 	.db #0x1c	; 28
      0008F4 07                    4444 	.db #0x07	; 7
      0008F5 07                    4445 	.db #0x07	; 7
      0008F6 01                    4446 	.db #0x01	; 1
      0008F7 0F                    4447 	.db #0x0f	; 15
      0008F8 00                    4448 	.db #0x00	; 0
      0008F9 00                    4449 	.db #0x00	; 0
      0008FA 00                    4450 	.db #0x00	; 0
      0008FB 00                    4451 	.db #0x00	; 0
      0008FC 00                    4452 	.db #0x00	; 0
      0008FD 00                    4453 	.db #0x00	; 0
      0008FE 00                    4454 	.db #0x00	; 0
      0008FF 00                    4455 	.db #0x00	; 0
      000900 00                    4456 	.db #0x00	; 0
      000901 00                    4457 	.db #0x00	; 0
      000902 00                    4458 	.db #0x00	; 0
      000903 00                    4459 	.db #0x00	; 0
      000904 00                    4460 	.db #0x00	; 0
      000905 00                    4461 	.db #0x00	; 0
      000906 00                    4462 	.db #0x00	; 0
      000907 00                    4463 	.db #0x00	; 0
      000908 00                    4464 	.db #0x00	; 0
      000909 00                    4465 	.db #0x00	; 0
      00090A 00                    4466 	.db #0x00	; 0
      00090B 00                    4467 	.db #0x00	; 0
      00090C 00                    4468 	.db #0x00	; 0
      00090D 00                    4469 	.db #0x00	; 0
      00090E 60                    4470 	.db #0x60	; 96
      00090F 80                    4471 	.db #0x80	; 128
      000910 90                    4472 	.db #0x90	; 144
      000911 60                    4473 	.db #0x60	; 96
      000912 60                    4474 	.db #0x60	; 96
      000913 98                    4475 	.db #0x98	; 152
      000914 D8                    4476 	.db #0xd8	; 216
      000915 20                    4477 	.db #0x20	; 32
      000916 C0                    4478 	.db #0xc0	; 192
      000917 F8                    4479 	.db #0xf8	; 248
      000918 00                    4480 	.db #0x00	; 0
      000919 00                    4481 	.db #0x00	; 0
      00091A 00                    4482 	.db #0x00	; 0
      00091B 00                    4483 	.db #0x00	; 0
      00091C 00                    4484 	.db #0x00	; 0
      00091D 00                    4485 	.db #0x00	; 0
      00091E 00                    4486 	.db #0x00	; 0
      00091F 00                    4487 	.db #0x00	; 0
      000920 00                    4488 	.db #0x00	; 0
      000921 00                    4489 	.db #0x00	; 0
      000922 00                    4490 	.db #0x00	; 0
      000923 00                    4491 	.db #0x00	; 0
      000924 00                    4492 	.db #0x00	; 0
      000925 00                    4493 	.db #0x00	; 0
      000926 00                    4494 	.db #0x00	; 0
      000927 00                    4495 	.db #0x00	; 0
      000928 00                    4496 	.db #0x00	; 0
      000929 00                    4497 	.db #0x00	; 0
      00092A 00                    4498 	.db #0x00	; 0
      00092B 00                    4499 	.db #0x00	; 0
      00092C 02                    4500 	.db #0x02	; 2
      00092D 02                    4501 	.db #0x02	; 2
      00092E 01                    4502 	.db #0x01	; 1
      00092F 01                    4503 	.db #0x01	; 1
      000930 03                    4504 	.db #0x03	; 3
      000931 02                    4505 	.db #0x02	; 2
      000932 07                    4506 	.db #0x07	; 7
      000933 04                    4507 	.db #0x04	; 4
      000934 07                    4508 	.db #0x07	; 7
      000935 07                    4509 	.db #0x07	; 7
      000936 01                    4510 	.db #0x01	; 1
      000937 07                    4511 	.db #0x07	; 7
      000938 00                    4512 	.db #0x00	; 0
      000939 00                    4513 	.db #0x00	; 0
      00093A 00                    4514 	.db #0x00	; 0
      00093B 00                    4515 	.db #0x00	; 0
      00093C 00                    4516 	.db #0x00	; 0
      00093D 00                    4517 	.db #0x00	; 0
      00093E 00                    4518 	.db #0x00	; 0
      00093F 00                    4519 	.db #0x00	; 0
      000940 00                    4520 	.db #0x00	; 0
      000941 00                    4521 	.db #0x00	; 0
      000942 00                    4522 	.db #0x00	; 0
      000943 00                    4523 	.db #0x00	; 0
      000944 00                    4524 	.db #0x00	; 0
      000945 00                    4525 	.db #0x00	; 0
      000946 00                    4526 	.db #0x00	; 0
      000947 00                    4527 	.db #0x00	; 0
      000948 00                    4528 	.db #0x00	; 0
      000949 00                    4529 	.db #0x00	; 0
      00094A 40                    4530 	.db #0x40	; 64
      00094B 40                    4531 	.db #0x40	; 64
      00094C E8                    4532 	.db #0xe8	; 232
      00094D E8                    4533 	.db #0xe8	; 232
      00094E 70                    4534 	.db #0x70	; 112	'p'
      00094F 90                    4535 	.db #0x90	; 144
      000950 98                    4536 	.db #0x98	; 152
      000951 68                    4537 	.db #0x68	; 104	'h'
      000952 64                    4538 	.db #0x64	; 100	'd'
      000953 9C                    4539 	.db #0x9c	; 156
      000954 D8                    4540 	.db #0xd8	; 216
      000955 20                    4541 	.db #0x20	; 32
      000956 C0                    4542 	.db #0xc0	; 192
      000957 F8                    4543 	.db #0xf8	; 248
      000958 00                    4544 	.db #0x00	; 0
      000959 00                    4545 	.db #0x00	; 0
      00095A 00                    4546 	.db #0x00	; 0
      00095B 00                    4547 	.db #0x00	; 0
      00095C 00                    4548 	.db #0x00	; 0
      00095D 00                    4549 	.db #0x00	; 0
      00095E 00                    4550 	.db #0x00	; 0
      00095F 00                    4551 	.db #0x00	; 0
      000960 00                    4552 	.db #0x00	; 0
      000961 00                    4553 	.db #0x00	; 0
      000962 01                    4554 	.db #0x01	; 1
      000963 01                    4555 	.db #0x01	; 1
      000964 09                    4556 	.db #0x09	; 9
      000965 19                    4557 	.db #0x19	; 25
      000966 3F                    4558 	.db #0x3f	; 63
      000967 0F                    4559 	.db #0x0f	; 15
      000968 0F                    4560 	.db #0x0f	; 15
      000969 07                    4561 	.db #0x07	; 7
      00096A 07                    4562 	.db #0x07	; 7
      00096B 07                    4563 	.db #0x07	; 7
      00096C 01                    4564 	.db #0x01	; 1
      00096D 01                    4565 	.db #0x01	; 1
      00096E 00                    4566 	.db #0x00	; 0
      00096F 00                    4567 	.db #0x00	; 0
      000970 02                    4568 	.db #0x02	; 2
      000971 02                    4569 	.db #0x02	; 2
      000972 01                    4570 	.db #0x01	; 1
      000973 01                    4571 	.db #0x01	; 1
      000974 00                    4572 	.db #0x00	; 0
      000975 00                    4573 	.db #0x00	; 0
      000976 00                    4574 	.db #0x00	; 0
      000977 00                    4575 	.db #0x00	; 0
      000978 00                    4576 	.db #0x00	; 0
      000979 00                    4577 	.db #0x00	; 0
      00097A 00                    4578 	.db #0x00	; 0
      00097B 00                    4579 	.db #0x00	; 0
      00097C 00                    4580 	.db #0x00	; 0
      00097D 00                    4581 	.db #0x00	; 0
      00097E 7F                    4582 	.db #0x7f	; 127
      00097F 7F                    4583 	.db #0x7f	; 127
      000980 F0                    4584 	.db #0xf0	; 240
      000981 FE                    4585 	.db #0xfe	; 254
      000982 FC                    4586 	.db #0xfc	; 252
      000983 FC                    4587 	.db #0xfc	; 252
      000984 E0                    4588 	.db #0xe0	; 224
      000985 FC                    4589 	.db #0xfc	; 252
      000986 F8                    4590 	.db #0xf8	; 248
      000987 F8                    4591 	.db #0xf8	; 248
      000988 C0                    4592 	.db #0xc0	; 192
      000989 F8                    4593 	.db #0xf8	; 248
      00098A E0                    4594 	.db #0xe0	; 224
      00098B E0                    4595 	.db #0xe0	; 224
      00098C E0                    4596 	.db #0xe0	; 224
      00098D E0                    4597 	.db #0xe0	; 224
      00098E C0                    4598 	.db #0xc0	; 192
      00098F C0                    4599 	.db #0xc0	; 192
      000990 C0                    4600 	.db #0xc0	; 192
      000991 C0                    4601 	.db #0xc0	; 192
      000992 80                    4602 	.db #0x80	; 128
      000993 80                    4603 	.db #0x80	; 128
      000994 80                    4604 	.db #0x80	; 128
      000995 80                    4605 	.db #0x80	; 128
      000996 40                    4606 	.db #0x40	; 64
      000997 40                    4607 	.db #0x40	; 64
      000998 00                    4608 	.db #0x00	; 0
      000999 00                    4609 	.db #0x00	; 0
      00099A 00                    4610 	.db #0x00	; 0
      00099B 03                    4611 	.db #0x03	; 3
      00099C 01                    4612 	.db #0x01	; 1
      00099D 07                    4613 	.db #0x07	; 7
      00099E 03                    4614 	.db #0x03	; 3
      00099F 0E                    4615 	.db #0x0e	; 14
      0009A0 05                    4616 	.db #0x05	; 5
      0009A1 1E                    4617 	.db #0x1e	; 30
      0009A2 03                    4618 	.db #0x03	; 3
      0009A3 1E                    4619 	.db #0x1e	; 30
      0009A4 05                    4620 	.db #0x05	; 5
      0009A5 1F                    4621 	.db #0x1f	; 31
      0009A6 03                    4622 	.db #0x03	; 3
      0009A7 1F                    4623 	.db #0x1f	; 31
      0009A8 03                    4624 	.db #0x03	; 3
      0009A9 1C                    4625 	.db #0x1c	; 28
      0009AA 03                    4626 	.db #0x03	; 3
      0009AB 1D                    4627 	.db #0x1d	; 29
      0009AC 03                    4628 	.db #0x03	; 3
      0009AD 1F                    4629 	.db #0x1f	; 31
      0009AE 03                    4630 	.db #0x03	; 3
      0009AF 1C                    4631 	.db #0x1c	; 28
      0009B0 03                    4632 	.db #0x03	; 3
      0009B1 3F                    4633 	.db #0x3f	; 63
      0009B2 03                    4634 	.db #0x03	; 3
      0009B3 0F                    4635 	.db #0x0f	; 15
      0009B4 06                    4636 	.db #0x06	; 6
      0009B5 06                    4637 	.db #0x06	; 6
      0009B6 04                    4638 	.db #0x04	; 4
      0009B7 04                    4639 	.db #0x04	; 4
      0009B8 00                    4640 	.db #0x00	; 0
      0009B9 00                    4641 	.db #0x00	; 0
      0009BA 00                    4642 	.db #0x00	; 0
      0009BB C0                    4643 	.db #0xc0	; 192
      0009BC 00                    4644 	.db #0x00	; 0
      0009BD E0                    4645 	.db #0xe0	; 224
      0009BE E0                    4646 	.db #0xe0	; 224
      0009BF 00                    4647 	.db #0x00	; 0
      0009C0 40                    4648 	.db #0x40	; 64
      0009C1 A0                    4649 	.db #0xa0	; 160
      0009C2 E0                    4650 	.db #0xe0	; 224
      0009C3 00                    4651 	.db #0x00	; 0
      0009C4 E0                    4652 	.db #0xe0	; 224
      0009C5 20                    4653 	.db #0x20	; 32
      0009C6 A0                    4654 	.db #0xa0	; 160
      0009C7 E0                    4655 	.db #0xe0	; 224
      0009C8 B8                    4656 	.db #0xb8	; 184
      0009C9 E0                    4657 	.db #0xe0	; 224
      0009CA B0                    4658 	.db #0xb0	; 176
      0009CB E0                    4659 	.db #0xe0	; 224
      0009CC A0                    4660 	.db #0xa0	; 160
      0009CD E0                    4661 	.db #0xe0	; 224
      0009CE E0                    4662 	.db #0xe0	; 224
      0009CF 00                    4663 	.db #0x00	; 0
      0009D0 E0                    4664 	.db #0xe0	; 224
      0009D1 E0                    4665 	.db #0xe0	; 224
      0009D2 20                    4666 	.db #0x20	; 32
      0009D3 20                    4667 	.db #0x20	; 32
      0009D4 20                    4668 	.db #0x20	; 32
      0009D5 20                    4669 	.db #0x20	; 32
      0009D6 30                    4670 	.db #0x30	; 48	'0'
      0009D7 30                    4671 	.db #0x30	; 48	'0'
      0009D8                       4672 __xinit__interior_tiles:
      0009D8 00                    4673 	.db #0x00	; 0
      0009D9 00                    4674 	.db #0x00	; 0
      0009DA 00                    4675 	.db #0x00	; 0
      0009DB 00                    4676 	.db #0x00	; 0
      0009DC 00                    4677 	.db #0x00	; 0
      0009DD 00                    4678 	.db #0x00	; 0
      0009DE 00                    4679 	.db #0x00	; 0
      0009DF 00                    4680 	.db #0x00	; 0
      0009E0 00                    4681 	.db #0x00	; 0
      0009E1 00                    4682 	.db #0x00	; 0
      0009E2 00                    4683 	.db #0x00	; 0
      0009E3 00                    4684 	.db #0x00	; 0
      0009E4 00                    4685 	.db #0x00	; 0
      0009E5 00                    4686 	.db #0x00	; 0
      0009E6 00                    4687 	.db #0x00	; 0
      0009E7 00                    4688 	.db #0x00	; 0
      0009E8 3C                    4689 	.db #0x3c	; 60
      0009E9 3C                    4690 	.db #0x3c	; 60
      0009EA C7                    4691 	.db #0xc7	; 199
      0009EB DB                    4692 	.db #0xdb	; 219
      0009EC A3                    4693 	.db #0xa3	; 163
      0009ED 18                    4694 	.db #0x18	; 24
      0009EE E6                    4695 	.db #0xe6	; 230
      0009EF 18                    4696 	.db #0x18	; 24
      0009F0 C7                    4697 	.db #0xc7	; 199
      0009F1 18                    4698 	.db #0x18	; 24
      0009F2 E1                    4699 	.db #0xe1	; 225
      0009F3 18                    4700 	.db #0x18	; 24
      0009F4 67                    4701 	.db #0x67	; 103	'g'
      0009F5 18                    4702 	.db #0x18	; 24
      0009F6 E7                    4703 	.db #0xe7	; 231
      0009F7 18                    4704 	.db #0x18	; 24
      0009F8 46                    4705 	.db #0x46	; 70	'F'
      0009F9 99                    4706 	.db #0x99	; 153
      0009FA A5                    4707 	.db #0xa5	; 165
      0009FB 5A                    4708 	.db #0x5a	; 90	'Z'
      0009FC 83                    4709 	.db #0x83	; 131
      0009FD 3C                    4710 	.db #0x3c	; 60
      0009FE 00                    4711 	.db #0x00	; 0
      0009FF FF                    4712 	.db #0xff	; 255
      000A00 00                    4713 	.db #0x00	; 0
      000A01 FF                    4714 	.db #0xff	; 255
      000A02 C3                    4715 	.db #0xc3	; 195
      000A03 3C                    4716 	.db #0x3c	; 60
      000A04 85                    4717 	.db #0x85	; 133
      000A05 5A                    4718 	.db #0x5a	; 90	'Z'
      000A06 46                    4719 	.db #0x46	; 70	'F'
      000A07 99                    4720 	.db #0x99	; 153
      000A08 E7                    4721 	.db #0xe7	; 231
      000A09 18                    4722 	.db #0x18	; 24
      000A0A E6                    4723 	.db #0xe6	; 230
      000A0B 18                    4724 	.db #0x18	; 24
      000A0C 65                    4725 	.db #0x65	; 101	'e'
      000A0D 18                    4726 	.db #0x18	; 24
      000A0E C7                    4727 	.db #0xc7	; 199
      000A0F 18                    4728 	.db #0x18	; 24
      000A10 E6                    4729 	.db #0xe6	; 230
      000A11 18                    4730 	.db #0x18	; 24
      000A12 C5                    4731 	.db #0xc5	; 197
      000A13 18                    4732 	.db #0x18	; 24
      000A14 C7                    4733 	.db #0xc7	; 199
      000A15 DB                    4734 	.db #0xdb	; 219
      000A16 3C                    4735 	.db #0x3c	; 60
      000A17 3C                    4736 	.db #0x3c	; 60
      000A18 00                    4737 	.db #0x00	; 0
      000A19 00                    4738 	.db #0x00	; 0
      000A1A 01                    4739 	.db #0x01	; 1
      000A1B 01                    4740 	.db #0x01	; 1
      000A1C 07                    4741 	.db #0x07	; 7
      000A1D 06                    4742 	.db #0x06	; 6
      000A1E 0C                    4743 	.db #0x0c	; 12
      000A1F 08                    4744 	.db #0x08	; 8
      000A20 17                    4745 	.db #0x17	; 23
      000A21 18                    4746 	.db #0x18	; 24
      000A22 3B                    4747 	.db #0x3b	; 59
      000A23 24                    4748 	.db #0x24	; 36
      000A24 24                    4749 	.db #0x24	; 36
      000A25 22                    4750 	.db #0x22	; 34
      000A26 7E                    4751 	.db #0x7e	; 126
      000A27 41                    4752 	.db #0x41	; 65	'A'
      000A28 79                    4753 	.db #0x79	; 121	'y'
      000A29 40                    4754 	.db #0x40	; 64
      000A2A 7F                    4755 	.db #0x7f	; 127
      000A2B 40                    4756 	.db #0x40	; 64
      000A2C CD                    4757 	.db #0xcd	; 205
      000A2D 80                    4758 	.db #0x80	; 128
      000A2E 80                    4759 	.db #0x80	; 128
      000A2F FF                    4760 	.db #0xff	; 255
      000A30 80                    4761 	.db #0x80	; 128
      000A31 FF                    4762 	.db #0xff	; 255
      000A32 C6                    4763 	.db #0xc6	; 198
      000A33 80                    4764 	.db #0x80	; 128
      000A34 7F                    4765 	.db #0x7f	; 127
      000A35 40                    4766 	.db #0x40	; 64
      000A36 73                    4767 	.db #0x73	; 115	's'
      000A37 40                    4768 	.db #0x40	; 64
      000A38 7E                    4769 	.db #0x7e	; 126
      000A39 41                    4770 	.db #0x41	; 65	'A'
      000A3A 3D                    4771 	.db #0x3d	; 61
      000A3B 22                    4772 	.db #0x22	; 34
      000A3C 23                    4773 	.db #0x23	; 35
      000A3D 24                    4774 	.db #0x24	; 36
      000A3E 15                    4775 	.db #0x15	; 21
      000A3F 18                    4776 	.db #0x18	; 24
      000A40 0B                    4777 	.db #0x0b	; 11
      000A41 08                    4778 	.db #0x08	; 8
      000A42 07                    4779 	.db #0x07	; 7
      000A43 06                    4780 	.db #0x06	; 6
      000A44 01                    4781 	.db #0x01	; 1
      000A45 01                    4782 	.db #0x01	; 1
      000A46 00                    4783 	.db #0x00	; 0
      000A47 00                    4784 	.db #0x00	; 0
      000A48 00                    4785 	.db #0x00	; 0
      000A49 00                    4786 	.db #0x00	; 0
      000A4A 80                    4787 	.db #0x80	; 128
      000A4B 80                    4788 	.db #0x80	; 128
      000A4C E0                    4789 	.db #0xe0	; 224
      000A4D 60                    4790 	.db #0x60	; 96
      000A4E 90                    4791 	.db #0x90	; 144
      000A4F 10                    4792 	.db #0x10	; 16
      000A50 E8                    4793 	.db #0xe8	; 232
      000A51 18                    4794 	.db #0x18	; 24
      000A52 C4                    4795 	.db #0xc4	; 196
      000A53 24                    4796 	.db #0x24	; 36
      000A54 1C                    4797 	.db #0x1c	; 28
      000A55 44                    4798 	.db #0x44	; 68	'D'
      000A56 7E                    4799 	.db #0x7e	; 126
      000A57 82                    4800 	.db #0x82	; 130
      000A58 EA                    4801 	.db #0xea	; 234
      000A59 02                    4802 	.db #0x02	; 2
      000A5A FE                    4803 	.db #0xfe	; 254
      000A5B 02                    4804 	.db #0x02	; 2
      000A5C 91                    4805 	.db #0x91	; 145
      000A5D 01                    4806 	.db #0x01	; 1
      000A5E 01                    4807 	.db #0x01	; 1
      000A5F FF                    4808 	.db #0xff	; 255
      000A60 01                    4809 	.db #0x01	; 1
      000A61 FF                    4810 	.db #0xff	; 255
      000A62 7F                    4811 	.db #0x7f	; 127
      000A63 01                    4812 	.db #0x01	; 1
      000A64 FE                    4813 	.db #0xfe	; 254
      000A65 02                    4814 	.db #0x02	; 2
      000A66 FE                    4815 	.db #0xfe	; 254
      000A67 02                    4816 	.db #0x02	; 2
      000A68 7E                    4817 	.db #0x7e	; 126
      000A69 82                    4818 	.db #0x82	; 130
      000A6A BC                    4819 	.db #0xbc	; 188
      000A6B 44                    4820 	.db #0x44	; 68	'D'
      000A6C DC                    4821 	.db #0xdc	; 220
      000A6D 24                    4822 	.db #0x24	; 36
      000A6E E8                    4823 	.db #0xe8	; 232
      000A6F 18                    4824 	.db #0x18	; 24
      000A70 F0                    4825 	.db #0xf0	; 240
      000A71 10                    4826 	.db #0x10	; 16
      000A72 E0                    4827 	.db #0xe0	; 224
      000A73 60                    4828 	.db #0x60	; 96
      000A74 80                    4829 	.db #0x80	; 128
      000A75 80                    4830 	.db #0x80	; 128
      000A76 00                    4831 	.db #0x00	; 0
      000A77 00                    4832 	.db #0x00	; 0
      000A78 FF                    4833 	.db #0xff	; 255
      000A79 04                    4834 	.db #0x04	; 4
      000A7A 06                    4835 	.db #0x06	; 6
      000A7B FD                    4836 	.db #0xfd	; 253
      000A7C 06                    4837 	.db #0x06	; 6
      000A7D FD                    4838 	.db #0xfd	; 253
      000A7E FF                    4839 	.db #0xff	; 255
      000A7F FF                    4840 	.db #0xff	; 255
      000A80 FF                    4841 	.db #0xff	; 255
      000A81 20                    4842 	.db #0x20	; 32
      000A82 30                    4843 	.db #0x30	; 48	'0'
      000A83 EF                    4844 	.db #0xef	; 239
      000A84 30                    4845 	.db #0x30	; 48	'0'
      000A85 EF                    4846 	.db #0xef	; 239
      000A86 FF                    4847 	.db #0xff	; 255
      000A87 FF                    4848 	.db #0xff	; 255
      000A88 DB                    4849 	.db #0xdb	; 219
      000A89 B6                    4850 	.db #0xb6	; 182
      000A8A DB                    4851 	.db #0xdb	; 219
      000A8B B6                    4852 	.db #0xb6	; 182
      000A8C DB                    4853 	.db #0xdb	; 219
      000A8D B6                    4854 	.db #0xb6	; 182
      000A8E DB                    4855 	.db #0xdb	; 219
      000A8F B6                    4856 	.db #0xb6	; 182
      000A90 DB                    4857 	.db #0xdb	; 219
      000A91 B6                    4858 	.db #0xb6	; 182
      000A92 DB                    4859 	.db #0xdb	; 219
      000A93 B6                    4860 	.db #0xb6	; 182
      000A94 DB                    4861 	.db #0xdb	; 219
      000A95 B6                    4862 	.db #0xb6	; 182
      000A96 DB                    4863 	.db #0xdb	; 219
      000A97 B6                    4864 	.db #0xb6	; 182
      000A98 1F                    4865 	.db #0x1f	; 31
      000A99 00                    4866 	.db #0x00	; 0
      000A9A 0F                    4867 	.db #0x0f	; 15
      000A9B 00                    4868 	.db #0x00	; 0
      000A9C 07                    4869 	.db #0x07	; 7
      000A9D 00                    4870 	.db #0x00	; 0
      000A9E 00                    4871 	.db #0x00	; 0
      000A9F 07                    4872 	.db #0x07	; 7
      000AA0 00                    4873 	.db #0x00	; 0
      000AA1 03                    4874 	.db #0x03	; 3
      000AA2 01                    4875 	.db #0x01	; 1
      000AA3 00                    4876 	.db #0x00	; 0
      000AA4 00                    4877 	.db #0x00	; 0
      000AA5 03                    4878 	.db #0x03	; 3
      000AA6 00                    4879 	.db #0x00	; 0
      000AA7 01                    4880 	.db #0x01	; 1
      000AA8 E3                    4881 	.db #0xe3	; 227
      000AA9 22                    4882 	.db #0x22	; 34
      000AAA E3                    4883 	.db #0xe3	; 227
      000AAB 22                    4884 	.db #0x22	; 34
      000AAC FF                    4885 	.db #0xff	; 255
      000AAD E3                    4886 	.db #0xe3	; 227
      000AAE FF                    4887 	.db #0xff	; 255
      000AAF FF                    4888 	.db #0xff	; 255
      000AB0 00                    4889 	.db #0x00	; 0
      000AB1 FF                    4890 	.db #0xff	; 255
      000AB2 FF                    4891 	.db #0xff	; 255
      000AB3 0F                    4892 	.db #0x0f	; 15
      000AB4 FF                    4893 	.db #0xff	; 255
      000AB5 F0                    4894 	.db #0xf0	; 240
      000AB6 00                    4895 	.db #0x00	; 0
      000AB7 FF                    4896 	.db #0xff	; 255
      000AB8 FF                    4897 	.db #0xff	; 255
      000AB9 02                    4898 	.db #0x02	; 2
      000ABA 01                    4899 	.db #0x01	; 1
      000ABB FE                    4900 	.db #0xfe	; 254
      000ABC FE                    4901 	.db #0xfe	; 254
      000ABD FD                    4902 	.db #0xfd	; 253
      000ABE FE                    4903 	.db #0xfe	; 254
      000ABF FD                    4904 	.db #0xfd	; 253
      000AC0 FD                    4905 	.db #0xfd	; 253
      000AC1 0B                    4906 	.db #0x0b	; 11
      000AC2 05                    4907 	.db #0x05	; 5
      000AC3 FB                    4908 	.db #0xfb	; 251
      000AC4 FB                    4909 	.db #0xfb	; 251
      000AC5 F6                    4910 	.db #0xf6	; 246
      000AC6 FB                    4911 	.db #0xfb	; 251
      000AC7 F6                    4912 	.db #0xf6	; 246
      000AC8 60                    4913 	.db #0x60	; 96
      000AC9 9F                    4914 	.db #0x9f	; 159
      000ACA 9F                    4915 	.db #0x9f	; 159
      000ACB 7F                    4916 	.db #0x7f	; 127
      000ACC 7F                    4917 	.db #0x7f	; 127
      000ACD E0                    4918 	.db #0xe0	; 224
      000ACE FF                    4919 	.db #0xff	; 255
      000ACF 9F                    4920 	.db #0x9f	; 159
      000AD0 E0                    4921 	.db #0xe0	; 224
      000AD1 60                    4922 	.db #0x60	; 96
      000AD2 80                    4923 	.db #0x80	; 128
      000AD3 80                    4924 	.db #0x80	; 128
      000AD4 00                    4925 	.db #0x00	; 0
      000AD5 00                    4926 	.db #0x00	; 0
      000AD6 00                    4927 	.db #0x00	; 0
      000AD7 00                    4928 	.db #0x00	; 0
      000AD8 70                    4929 	.db #0x70	; 112	'p'
      000AD9 D0                    4930 	.db #0xd0	; 208
      000ADA 70                    4931 	.db #0x70	; 112	'p'
      000ADB D0                    4932 	.db #0xd0	; 208
      000ADC E0                    4933 	.db #0xe0	; 224
      000ADD A0                    4934 	.db #0xa0	; 160
      000ADE E0                    4935 	.db #0xe0	; 224
      000ADF A0                    4936 	.db #0xa0	; 160
      000AE0 C0                    4937 	.db #0xc0	; 192
      000AE1 40                    4938 	.db #0x40	; 64
      000AE2 C0                    4939 	.db #0xc0	; 192
      000AE3 40                    4940 	.db #0x40	; 64
      000AE4 80                    4941 	.db #0x80	; 128
      000AE5 80                    4942 	.db #0x80	; 128
      000AE6 80                    4943 	.db #0x80	; 128
      000AE7 80                    4944 	.db #0x80	; 128
      000AE8 00                    4945 	.db #0x00	; 0
      000AE9 FF                    4946 	.db #0xff	; 255
      000AEA FF                    4947 	.db #0xff	; 255
      000AEB FF                    4948 	.db #0xff	; 255
      000AEC FF                    4949 	.db #0xff	; 255
      000AED 00                    4950 	.db #0x00	; 0
      000AEE FF                    4951 	.db #0xff	; 255
      000AEF FF                    4952 	.db #0xff	; 255
      000AF0 00                    4953 	.db #0x00	; 0
      000AF1 00                    4954 	.db #0x00	; 0
      000AF2 00                    4955 	.db #0x00	; 0
      000AF3 00                    4956 	.db #0x00	; 0
      000AF4 00                    4957 	.db #0x00	; 0
      000AF5 00                    4958 	.db #0x00	; 0
      000AF6 00                    4959 	.db #0x00	; 0
      000AF7 00                    4960 	.db #0x00	; 0
      000AF8 F8                    4961 	.db #0xf8	; 248
      000AF9 00                    4962 	.db #0x00	; 0
      000AFA F0                    4963 	.db #0xf0	; 240
      000AFB 00                    4964 	.db #0x00	; 0
      000AFC E0                    4965 	.db #0xe0	; 224
      000AFD 00                    4966 	.db #0x00	; 0
      000AFE 00                    4967 	.db #0x00	; 0
      000AFF E0                    4968 	.db #0xe0	; 224
      000B00 00                    4969 	.db #0x00	; 0
      000B01 C0                    4970 	.db #0xc0	; 192
      000B02 80                    4971 	.db #0x80	; 128
      000B03 00                    4972 	.db #0x00	; 0
      000B04 00                    4973 	.db #0x00	; 0
      000B05 C0                    4974 	.db #0xc0	; 192
      000B06 00                    4975 	.db #0x00	; 0
      000B07 80                    4976 	.db #0x80	; 128
      000B08 1F                    4977 	.db #0x1f	; 31
      000B09 00                    4978 	.db #0x00	; 0
      000B0A 0F                    4979 	.db #0x0f	; 15
      000B0B 00                    4980 	.db #0x00	; 0
      000B0C 07                    4981 	.db #0x07	; 7
      000B0D 00                    4982 	.db #0x00	; 0
      000B0E 00                    4983 	.db #0x00	; 0
      000B0F 1F                    4984 	.db #0x1f	; 31
      000B10 00                    4985 	.db #0x00	; 0
      000B11 1F                    4986 	.db #0x1f	; 31
      000B12 07                    4987 	.db #0x07	; 7
      000B13 08                    4988 	.db #0x08	; 8
      000B14 00                    4989 	.db #0x00	; 0
      000B15 1F                    4990 	.db #0x1f	; 31
      000B16 00                    4991 	.db #0x00	; 0
      000B17 1F                    4992 	.db #0x1f	; 31
      000B18 F8                    4993 	.db #0xf8	; 248
      000B19 00                    4994 	.db #0x00	; 0
      000B1A F0                    4995 	.db #0xf0	; 240
      000B1B 00                    4996 	.db #0x00	; 0
      000B1C E0                    4997 	.db #0xe0	; 224
      000B1D 00                    4998 	.db #0x00	; 0
      000B1E 00                    4999 	.db #0x00	; 0
      000B1F F8                    5000 	.db #0xf8	; 248
      000B20 00                    5001 	.db #0x00	; 0
      000B21 F8                    5002 	.db #0xf8	; 248
      000B22 E0                    5003 	.db #0xe0	; 224
      000B23 10                    5004 	.db #0x10	; 16
      000B24 00                    5005 	.db #0x00	; 0
      000B25 F8                    5006 	.db #0xf8	; 248
      000B26 00                    5007 	.db #0x00	; 0
      000B27 F8                    5008 	.db #0xf8	; 248
      000B28 FF                    5009 	.db #0xff	; 255
      000B29 00                    5010 	.db #0x00	; 0
      000B2A FF                    5011 	.db #0xff	; 255
      000B2B 0C                    5012 	.db #0x0c	; 12
      000B2C FF                    5013 	.db #0xff	; 255
      000B2D 33                    5014 	.db #0x33	; 51	'3'
      000B2E 00                    5015 	.db #0x00	; 0
      000B2F FF                    5016 	.db #0xff	; 255
      000B30 00                    5017 	.db #0x00	; 0
      000B31 FF                    5018 	.db #0xff	; 255
      000B32 FF                    5019 	.db #0xff	; 255
      000B33 07                    5020 	.db #0x07	; 7
      000B34 1F                    5021 	.db #0x1f	; 31
      000B35 E0                    5022 	.db #0xe0	; 224
      000B36 00                    5023 	.db #0x00	; 0
      000B37 FF                    5024 	.db #0xff	; 255
      000B38 FF                    5025 	.db #0xff	; 255
      000B39 00                    5026 	.db #0x00	; 0
      000B3A FF                    5027 	.db #0xff	; 255
      000B3B 30                    5028 	.db #0x30	; 48	'0'
      000B3C FF                    5029 	.db #0xff	; 255
      000B3D CC                    5030 	.db #0xcc	; 204
      000B3E 00                    5031 	.db #0x00	; 0
      000B3F FF                    5032 	.db #0xff	; 255
      000B40 00                    5033 	.db #0x00	; 0
      000B41 FF                    5034 	.db #0xff	; 255
      000B42 FF                    5035 	.db #0xff	; 255
      000B43 E0                    5036 	.db #0xe0	; 224
      000B44 F8                    5037 	.db #0xf8	; 248
      000B45 07                    5038 	.db #0x07	; 7
      000B46 00                    5039 	.db #0x00	; 0
      000B47 FF                    5040 	.db #0xff	; 255
      000B48 18                    5041 	.db #0x18	; 24
      000B49 18                    5042 	.db #0x18	; 24
      000B4A 24                    5043 	.db #0x24	; 36
      000B4B 24                    5044 	.db #0x24	; 36
      000B4C 24                    5045 	.db #0x24	; 36
      000B4D 24                    5046 	.db #0x24	; 36
      000B4E 42                    5047 	.db #0x42	; 66	'B'
      000B4F 66                    5048 	.db #0x66	; 102	'f'
      000B50 42                    5049 	.db #0x42	; 66	'B'
      000B51 5A                    5050 	.db #0x5a	; 90	'Z'
      000B52 42                    5051 	.db #0x42	; 66	'B'
      000B53 42                    5052 	.db #0x42	; 66	'B'
      000B54 42                    5053 	.db #0x42	; 66	'B'
      000B55 66                    5054 	.db #0x66	; 102	'f'
      000B56 81                    5055 	.db #0x81	; 129
      000B57 99                    5056 	.db #0x99	; 153
      000B58 C3                    5057 	.db #0xc3	; 195
      000B59 81                    5058 	.db #0x81	; 129
      000B5A BD                    5059 	.db #0xbd	; 189
      000B5B 81                    5060 	.db #0x81	; 129
      000B5C 81                    5061 	.db #0x81	; 129
      000B5D 81                    5062 	.db #0x81	; 129
      000B5E 81                    5063 	.db #0x81	; 129
      000B5F C3                    5064 	.db #0xc3	; 195
      000B60 81                    5065 	.db #0x81	; 129
      000B61 BD                    5066 	.db #0xbd	; 189
      000B62 FF                    5067 	.db #0xff	; 255
      000B63 DB                    5068 	.db #0xdb	; 219
      000B64 81                    5069 	.db #0x81	; 129
      000B65 FF                    5070 	.db #0xff	; 255
      000B66 BD                    5071 	.db #0xbd	; 189
      000B67 C3                    5072 	.db #0xc3	; 195
      000B68 FF                    5073 	.db #0xff	; 255
      000B69 FF                    5074 	.db #0xff	; 255
      000B6A 7F                    5075 	.db #0x7f	; 127
      000B6B 00                    5076 	.db #0x00	; 0
      000B6C 3F                    5077 	.db #0x3f	; 63
      000B6D 3F                    5078 	.db #0x3f	; 63
      000B6E 2A                    5079 	.db #0x2a	; 42
      000B6F 20                    5080 	.db #0x20	; 32
      000B70 2A                    5081 	.db #0x2a	; 42
      000B71 20                    5082 	.db #0x20	; 32
      000B72 1A                    5083 	.db #0x1a	; 26
      000B73 10                    5084 	.db #0x10	; 16
      000B74 0A                    5085 	.db #0x0a	; 10
      000B75 08                    5086 	.db #0x08	; 8
      000B76 07                    5087 	.db #0x07	; 7
      000B77 07                    5088 	.db #0x07	; 7
      000B78 FF                    5089 	.db #0xff	; 255
      000B79 FF                    5090 	.db #0xff	; 255
      000B7A FF                    5091 	.db #0xff	; 255
      000B7B 00                    5092 	.db #0x00	; 0
      000B7C FF                    5093 	.db #0xff	; 255
      000B7D FF                    5094 	.db #0xff	; 255
      000B7E AA                    5095 	.db #0xaa	; 170
      000B7F 00                    5096 	.db #0x00	; 0
      000B80 AA                    5097 	.db #0xaa	; 170
      000B81 00                    5098 	.db #0x00	; 0
      000B82 AA                    5099 	.db #0xaa	; 170
      000B83 00                    5100 	.db #0x00	; 0
      000B84 AA                    5101 	.db #0xaa	; 170
      000B85 00                    5102 	.db #0x00	; 0
      000B86 FF                    5103 	.db #0xff	; 255
      000B87 FF                    5104 	.db #0xff	; 255
      000B88 FF                    5105 	.db #0xff	; 255
      000B89 FF                    5106 	.db #0xff	; 255
      000B8A FE                    5107 	.db #0xfe	; 254
      000B8B 00                    5108 	.db #0x00	; 0
      000B8C FC                    5109 	.db #0xfc	; 252
      000B8D FC                    5110 	.db #0xfc	; 252
      000B8E AC                    5111 	.db #0xac	; 172
      000B8F 04                    5112 	.db #0x04	; 4
      000B90 AC                    5113 	.db #0xac	; 172
      000B91 04                    5114 	.db #0x04	; 4
      000B92 A8                    5115 	.db #0xa8	; 168
      000B93 08                    5116 	.db #0x08	; 8
      000B94 B0                    5117 	.db #0xb0	; 176
      000B95 10                    5118 	.db #0x10	; 16
      000B96 E0                    5119 	.db #0xe0	; 224
      000B97 E0                    5120 	.db #0xe0	; 224
      000B98 01                    5121 	.db #0x01	; 1
      000B99 01                    5122 	.db #0x01	; 1
      000B9A 03                    5123 	.db #0x03	; 3
      000B9B 00                    5124 	.db #0x00	; 0
      000B9C 00                    5125 	.db #0x00	; 0
      000B9D 03                    5126 	.db #0x03	; 3
      000B9E 0A                    5127 	.db #0x0a	; 10
      000B9F 00                    5128 	.db #0x00	; 0
      000BA0 0A                    5129 	.db #0x0a	; 10
      000BA1 00                    5130 	.db #0x00	; 0
      000BA2 0A                    5131 	.db #0x0a	; 10
      000BA3 00                    5132 	.db #0x00	; 0
      000BA4 0A                    5133 	.db #0x0a	; 10
      000BA5 08                    5134 	.db #0x08	; 8
      000BA6 07                    5135 	.db #0x07	; 7
      000BA7 07                    5136 	.db #0x07	; 7
      000BA8 80                    5137 	.db #0x80	; 128
      000BA9 80                    5138 	.db #0x80	; 128
      000BAA C0                    5139 	.db #0xc0	; 192
      000BAB 00                    5140 	.db #0x00	; 0
      000BAC 00                    5141 	.db #0x00	; 0
      000BAD C0                    5142 	.db #0xc0	; 192
      000BAE 50                    5143 	.db #0x50	; 80	'P'
      000BAF 00                    5144 	.db #0x00	; 0
      000BB0 50                    5145 	.db #0x50	; 80	'P'
      000BB1 00                    5146 	.db #0x00	; 0
      000BB2 50                    5147 	.db #0x50	; 80	'P'
      000BB3 00                    5148 	.db #0x00	; 0
      000BB4 50                    5149 	.db #0x50	; 80	'P'
      000BB5 10                    5150 	.db #0x10	; 16
      000BB6 E0                    5151 	.db #0xe0	; 224
      000BB7 E0                    5152 	.db #0xe0	; 224
      000BB8 05                    5153 	.db #0x05	; 5
      000BB9 03                    5154 	.db #0x03	; 3
      000BBA 05                    5155 	.db #0x05	; 5
      000BBB 03                    5156 	.db #0x03	; 3
      000BBC 05                    5157 	.db #0x05	; 5
      000BBD 03                    5158 	.db #0x03	; 3
      000BBE 05                    5159 	.db #0x05	; 5
      000BBF 03                    5160 	.db #0x03	; 3
      000BC0 0A                    5161 	.db #0x0a	; 10
      000BC1 07                    5162 	.db #0x07	; 7
      000BC2 15                    5163 	.db #0x15	; 21
      000BC3 0F                    5164 	.db #0x0f	; 15
      000BC4 2A                    5165 	.db #0x2a	; 42
      000BC5 1F                    5166 	.db #0x1f	; 31
      000BC6 B6                    5167 	.db #0xb6	; 182
      000BC7 7F                    5168 	.db #0x7f	; 127
      000BC8 80                    5169 	.db #0x80	; 128
      000BC9 00                    5170 	.db #0x00	; 0
      000BCA 80                    5171 	.db #0x80	; 128
      000BCB 00                    5172 	.db #0x00	; 0
      000BCC 80                    5173 	.db #0x80	; 128
      000BCD 00                    5174 	.db #0x00	; 0
      000BCE 80                    5175 	.db #0x80	; 128
      000BCF 00                    5176 	.db #0x00	; 0
      000BD0 C0                    5177 	.db #0xc0	; 192
      000BD1 80                    5178 	.db #0x80	; 128
      000BD2 60                    5179 	.db #0x60	; 96
      000BD3 C0                    5180 	.db #0xc0	; 192
      000BD4 B0                    5181 	.db #0xb0	; 176
      000BD5 E0                    5182 	.db #0xe0	; 224
      000BD6 D8                    5183 	.db #0xd8	; 216
      000BD7 F0                    5184 	.db #0xf0	; 240
      000BD8 00                    5185 	.db #0x00	; 0
      000BD9 00                    5186 	.db #0x00	; 0
      000BDA 00                    5187 	.db #0x00	; 0
      000BDB 00                    5188 	.db #0x00	; 0
      000BDC 00                    5189 	.db #0x00	; 0
      000BDD 00                    5190 	.db #0x00	; 0
      000BDE FF                    5191 	.db #0xff	; 255
      000BDF 00                    5192 	.db #0x00	; 0
      000BE0 00                    5193 	.db #0x00	; 0
      000BE1 7F                    5194 	.db #0x7f	; 127
      000BE2 3F                    5195 	.db #0x3f	; 63
      000BE3 3F                    5196 	.db #0x3f	; 63
      000BE4 0F                    5197 	.db #0x0f	; 15
      000BE5 0F                    5198 	.db #0x0f	; 15
      000BE6 05                    5199 	.db #0x05	; 5
      000BE7 03                    5200 	.db #0x03	; 3
      000BE8 00                    5201 	.db #0x00	; 0
      000BE9 00                    5202 	.db #0x00	; 0
      000BEA 00                    5203 	.db #0x00	; 0
      000BEB 00                    5204 	.db #0x00	; 0
      000BEC 00                    5205 	.db #0x00	; 0
      000BED 00                    5206 	.db #0x00	; 0
      000BEE FC                    5207 	.db #0xfc	; 252
      000BEF 00                    5208 	.db #0x00	; 0
      000BF0 00                    5209 	.db #0x00	; 0
      000BF1 F8                    5210 	.db #0xf8	; 248
      000BF2 F0                    5211 	.db #0xf0	; 240
      000BF3 F0                    5212 	.db #0xf0	; 240
      000BF4 C0                    5213 	.db #0xc0	; 192
      000BF5 C0                    5214 	.db #0xc0	; 192
      000BF6 80                    5215 	.db #0x80	; 128
      000BF7 00                    5216 	.db #0x00	; 0
      000BF8 00                    5217 	.db #0x00	; 0
      000BF9 00                    5218 	.db #0x00	; 0
      000BFA 3F                    5219 	.db #0x3f	; 63
      000BFB 3F                    5220 	.db #0x3f	; 63
      000BFC 7D                    5221 	.db #0x7d	; 125
      000BFD 7D                    5222 	.db #0x7d	; 125
      000BFE 00                    5223 	.db #0x00	; 0
      000BFF 18                    5224 	.db #0x18	; 24
      000C00 32                    5225 	.db #0x32	; 50	'2'
      000C01 4D                    5226 	.db #0x4d	; 77	'M'
      000C02 00                    5227 	.db #0x00	; 0
      000C03 7F                    5228 	.db #0x7f	; 127
      000C04 7F                    5229 	.db #0x7f	; 127
      000C05 7F                    5230 	.db #0x7f	; 127
      000C06 00                    5231 	.db #0x00	; 0
      000C07 22                    5232 	.db #0x22	; 34
      000C08 00                    5233 	.db #0x00	; 0
      000C09 00                    5234 	.db #0x00	; 0
      000C0A EF                    5235 	.db #0xef	; 239
      000C0B EF                    5236 	.db #0xef	; 239
      000C0C FE                    5237 	.db #0xfe	; 254
      000C0D FE                    5238 	.db #0xfe	; 254
      000C0E 00                    5239 	.db #0x00	; 0
      000C0F 66                    5240 	.db #0x66	; 102	'f'
      000C10 0C                    5241 	.db #0x0c	; 12
      000C11 F3                    5242 	.db #0xf3	; 243
      000C12 61                    5243 	.db #0x61	; 97	'a'
      000C13 9E                    5244 	.db #0x9e	; 158
      000C14 FF                    5245 	.db #0xff	; 255
      000C15 FF                    5246 	.db #0xff	; 255
      000C16 00                    5247 	.db #0x00	; 0
      000C17 24                    5248 	.db #0x24	; 36
      000C18 FF                    5249 	.db #0xff	; 255
      000C19 AA                    5250 	.db #0xaa	; 170
      000C1A FF                    5251 	.db #0xff	; 255
      000C1B 55                    5252 	.db #0x55	; 85	'U'
      000C1C FF                    5253 	.db #0xff	; 255
      000C1D AA                    5254 	.db #0xaa	; 170
      000C1E 00                    5255 	.db #0x00	; 0
      000C1F FF                    5256 	.db #0xff	; 255
      000C20 00                    5257 	.db #0x00	; 0
      000C21 FF                    5258 	.db #0xff	; 255
      000C22 00                    5259 	.db #0x00	; 0
      000C23 FF                    5260 	.db #0xff	; 255
      000C24 00                    5261 	.db #0x00	; 0
      000C25 FF                    5262 	.db #0xff	; 255
      000C26 00                    5263 	.db #0x00	; 0
      000C27 FF                    5264 	.db #0xff	; 255
      000C28 00                    5265 	.db #0x00	; 0
      000C29 FF                    5266 	.db #0xff	; 255
      000C2A 00                    5267 	.db #0x00	; 0
      000C2B FF                    5268 	.db #0xff	; 255
      000C2C 00                    5269 	.db #0x00	; 0
      000C2D FF                    5270 	.db #0xff	; 255
      000C2E 00                    5271 	.db #0x00	; 0
      000C2F FF                    5272 	.db #0xff	; 255
      000C30 00                    5273 	.db #0x00	; 0
      000C31 FF                    5274 	.db #0xff	; 255
      000C32 00                    5275 	.db #0x00	; 0
      000C33 FF                    5276 	.db #0xff	; 255
      000C34 00                    5277 	.db #0x00	; 0
      000C35 FF                    5278 	.db #0xff	; 255
      000C36 00                    5279 	.db #0x00	; 0
      000C37 FF                    5280 	.db #0xff	; 255
      000C38 FF                    5281 	.db #0xff	; 255
      000C39 40                    5282 	.db #0x40	; 64
      000C3A 80                    5283 	.db #0x80	; 128
      000C3B 7F                    5284 	.db #0x7f	; 127
      000C3C 7F                    5285 	.db #0x7f	; 127
      000C3D BF                    5286 	.db #0xbf	; 191
      000C3E 7F                    5287 	.db #0x7f	; 127
      000C3F BF                    5288 	.db #0xbf	; 191
      000C40 BF                    5289 	.db #0xbf	; 191
      000C41 D0                    5290 	.db #0xd0	; 208
      000C42 A0                    5291 	.db #0xa0	; 160
      000C43 DF                    5292 	.db #0xdf	; 223
      000C44 DF                    5293 	.db #0xdf	; 223
      000C45 6F                    5294 	.db #0x6f	; 111	'o'
      000C46 DF                    5295 	.db #0xdf	; 223
      000C47 6F                    5296 	.db #0x6f	; 111	'o'
      000C48 00                    5297 	.db #0x00	; 0
      000C49 FF                    5298 	.db #0xff	; 255
      000C4A 01                    5299 	.db #0x01	; 1
      000C4B FE                    5300 	.db #0xfe	; 254
      000C4C 06                    5301 	.db #0x06	; 6
      000C4D F9                    5302 	.db #0xf9	; 249
      000C4E 09                    5303 	.db #0x09	; 9
      000C4F F7                    5304 	.db #0xf7	; 247
      000C50 17                    5305 	.db #0x17	; 23
      000C51 EE                    5306 	.db #0xee	; 238
      000C52 2F                    5307 	.db #0x2f	; 47
      000C53 D9                    5308 	.db #0xd9	; 217
      000C54 5E                    5309 	.db #0x5e	; 94
      000C55 B6                    5310 	.db #0xb6	; 182
      000C56 B8                    5311 	.db #0xb8	; 184
      000C57 68                    5312 	.db #0x68	; 104	'h'
      000C58 00                    5313 	.db #0x00	; 0
      000C59 FF                    5314 	.db #0xff	; 255
      000C5A 80                    5315 	.db #0x80	; 128
      000C5B 7F                    5316 	.db #0x7f	; 127
      000C5C 60                    5317 	.db #0x60	; 96
      000C5D 9F                    5318 	.db #0x9f	; 159
      000C5E 90                    5319 	.db #0x90	; 144
      000C5F EF                    5320 	.db #0xef	; 239
      000C60 E8                    5321 	.db #0xe8	; 232
      000C61 77                    5322 	.db #0x77	; 119	'w'
      000C62 F4                    5323 	.db #0xf4	; 244
      000C63 9B                    5324 	.db #0x9b	; 155
      000C64 7A                    5325 	.db #0x7a	; 122	'z'
      000C65 6D                    5326 	.db #0x6d	; 109	'm'
      000C66 1D                    5327 	.db #0x1d	; 29
      000C67 16                    5328 	.db #0x16	; 22
      000C68 06                    5329 	.db #0x06	; 6
      000C69 F9                    5330 	.db #0xf9	; 249
      000C6A F9                    5331 	.db #0xf9	; 249
      000C6B FE                    5332 	.db #0xfe	; 254
      000C6C FE                    5333 	.db #0xfe	; 254
      000C6D 07                    5334 	.db #0x07	; 7
      000C6E FF                    5335 	.db #0xff	; 255
      000C6F F9                    5336 	.db #0xf9	; 249
      000C70 07                    5337 	.db #0x07	; 7
      000C71 06                    5338 	.db #0x06	; 6
      000C72 01                    5339 	.db #0x01	; 1
      000C73 01                    5340 	.db #0x01	; 1
      000C74 00                    5341 	.db #0x00	; 0
      000C75 00                    5342 	.db #0x00	; 0
      000C76 00                    5343 	.db #0x00	; 0
      000C77 00                    5344 	.db #0x00	; 0
      000C78 0E                    5345 	.db #0x0e	; 14
      000C79 0B                    5346 	.db #0x0b	; 11
      000C7A 0E                    5347 	.db #0x0e	; 14
      000C7B 0B                    5348 	.db #0x0b	; 11
      000C7C 07                    5349 	.db #0x07	; 7
      000C7D 05                    5350 	.db #0x05	; 5
      000C7E 07                    5351 	.db #0x07	; 7
      000C7F 05                    5352 	.db #0x05	; 5
      000C80 03                    5353 	.db #0x03	; 3
      000C81 02                    5354 	.db #0x02	; 2
      000C82 03                    5355 	.db #0x03	; 3
      000C83 02                    5356 	.db #0x02	; 2
      000C84 01                    5357 	.db #0x01	; 1
      000C85 01                    5358 	.db #0x01	; 1
      000C86 01                    5359 	.db #0x01	; 1
      000C87 01                    5360 	.db #0x01	; 1
      000C88                       5361 __xinit__interior_map:
      000C88 0D                    5362 	.db #0x0d	; 13
      000C89 0D                    5363 	.db #0x0d	; 13
      000C8A 12                    5364 	.db #0x12	; 18
      000C8B 00                    5365 	.db #0x00	; 0
      000C8C 00                    5366 	.db #0x00	; 0
      000C8D 00                    5367 	.db #0x00	; 0
      000C8E 0C                    5368 	.db #0x0c	; 12
      000C8F 0D                    5369 	.db #0x0d	; 13
      000C90 0D                    5370 	.db #0x0d	; 13
      000C91 25                    5371 	.db #0x25	; 37
      000C92 0D                    5372 	.db #0x0d	; 13
      000C93 25                    5373 	.db #0x25	; 37
      000C94 0D                    5374 	.db #0x0d	; 13
      000C95 25                    5375 	.db #0x25	; 37
      000C96 0D                    5376 	.db #0x0d	; 13
      000C97 0D                    5377 	.db #0x0d	; 13
      000C98 12                    5378 	.db #0x12	; 18
      000C99 00                    5379 	.db #0x00	; 0
      000C9A 17                    5380 	.db #0x17	; 23
      000C9B 00                    5381 	.db #0x00	; 0
      000C9C 00                    5382 	.db #0x00	; 0
      000C9D 0B                    5383 	.db #0x0b	; 11
      000C9E 25                    5384 	.db #0x25	; 37
      000C9F 27                    5385 	.db #0x27	; 39
      000CA0 0F                    5386 	.db #0x0f	; 15
      000CA1 29                    5387 	.db #0x29	; 41
      000CA2 28                    5388 	.db #0x28	; 40
      000CA3 25                    5389 	.db #0x25	; 37
      000CA4 0B                    5390 	.db #0x0b	; 11
      000CA5 00                    5391 	.db #0x00	; 0
      000CA6 17                    5392 	.db #0x17	; 23
      000CA7 00                    5393 	.db #0x00	; 0
      000CA8 17                    5394 	.db #0x17	; 23
      000CA9 0C                    5395 	.db #0x0c	; 12
      000CAA 0D                    5396 	.db #0x0d	; 13
      000CAB 0D                    5397 	.db #0x0d	; 13
      000CAC 25                    5398 	.db #0x25	; 37
      000CAD 25                    5399 	.db #0x25	; 37
      000CAE 0D                    5400 	.db #0x0d	; 13
      000CAF 0D                    5401 	.db #0x0d	; 13
      000CB0 25                    5402 	.db #0x25	; 37
      000CB1 0B                    5403 	.db #0x0b	; 11
      000CB2 00                    5404 	.db #0x00	; 0
      000CB3 00                    5405 	.db #0x00	; 0
      000CB4 00                    5406 	.db #0x00	; 0
      000CB5 00                    5407 	.db #0x00	; 0
      000CB6 00                    5408 	.db #0x00	; 0
      000CB7 0B                    5409 	.db #0x0b	; 11
      000CB8 25                    5410 	.db #0x25	; 37
      000CB9 27                    5411 	.db #0x27	; 39
      000CBA 0F                    5412 	.db #0x0f	; 15
      000CBB 11                    5413 	.db #0x11	; 17
      000CBC 29                    5414 	.db #0x29	; 41
      000CBD 28                    5415 	.db #0x28	; 40
      000CBE 25                    5416 	.db #0x25	; 37
      000CBF 0B                    5417 	.db #0x0b	; 11
      000CC0 00                    5418 	.db #0x00	; 0
      000CC1 00                    5419 	.db #0x00	; 0
      000CC2 18                    5420 	.db #0x18	; 24
      000CC3 00                    5421 	.db #0x00	; 0
      000CC4 00                    5422 	.db #0x00	; 0
      000CC5 0B                    5423 	.db #0x0b	; 11
      000CC6 0E                    5424 	.db #0x0e	; 14
      000CC7 10                    5425 	.db #0x10	; 16
      000CC8 00                    5426 	.db #0x00	; 0
      000CC9 00                    5427 	.db #0x00	; 0
      000CCA 2A                    5428 	.db #0x2a	; 42
      000CCB 26                    5429 	.db #0x26	; 38
      000CCC 0B                    5430 	.db #0x0b	; 11
      000CCD 00                    5431 	.db #0x00	; 0
      000CCE 18                    5432 	.db #0x18	; 24
      000CCF 00                    5433 	.db #0x00	; 0
      000CD0 18                    5434 	.db #0x18	; 24
      000CD1 00                    5435 	.db #0x00	; 0
      000CD2 0B                    5436 	.db #0x0b	; 11
      000CD3 25                    5437 	.db #0x25	; 37
      000CD4 27                    5438 	.db #0x27	; 39
      000CD5 28                    5439 	.db #0x28	; 40
      000CD6 25                    5440 	.db #0x25	; 37
      000CD7 0B                    5441 	.db #0x0b	; 11
      000CD8 26                    5442 	.db #0x26	; 38
      000CD9 0B                    5443 	.db #0x0b	; 11
      000CDA 00                    5444 	.db #0x00	; 0
      000CDB 00                    5445 	.db #0x00	; 0
      000CDC 00                    5446 	.db #0x00	; 0
      000CDD 00                    5447 	.db #0x00	; 0
      000CDE 00                    5448 	.db #0x00	; 0
      000CDF 0B                    5449 	.db #0x0b	; 11
      000CE0 0E                    5450 	.db #0x0e	; 14
      000CE1 10                    5451 	.db #0x10	; 16
      000CE2 00                    5452 	.db #0x00	; 0
      000CE3 00                    5453 	.db #0x00	; 0
      000CE4 00                    5454 	.db #0x00	; 0
      000CE5 2A                    5455 	.db #0x2a	; 42
      000CE6 26                    5456 	.db #0x26	; 38
      000CE7 0B                    5457 	.db #0x0b	; 11
      000CE8 00                    5458 	.db #0x00	; 0
      000CE9 00                    5459 	.db #0x00	; 0
      000CEA 00                    5460 	.db #0x00	; 0
      000CEB 00                    5461 	.db #0x00	; 0
      000CEC 00                    5462 	.db #0x00	; 0
      000CED 0B                    5463 	.db #0x0b	; 11
      000CEE 0B                    5464 	.db #0x0b	; 11
      000CEF 00                    5465 	.db #0x00	; 0
      000CF0 00                    5466 	.db #0x00	; 0
      000CF1 00                    5467 	.db #0x00	; 0
      000CF2 00                    5468 	.db #0x00	; 0
      000CF3 0B                    5469 	.db #0x0b	; 11
      000CF4 0B                    5470 	.db #0x0b	; 11
      000CF5 00                    5471 	.db #0x00	; 0
      000CF6 00                    5472 	.db #0x00	; 0
      000CF7 00                    5473 	.db #0x00	; 0
      000CF8 00                    5474 	.db #0x00	; 0
      000CF9 00                    5475 	.db #0x00	; 0
      000CFA 0B                    5476 	.db #0x0b	; 11
      000CFB 0E                    5477 	.db #0x0e	; 14
      000CFC 10                    5478 	.db #0x10	; 16
      000CFD 2A                    5479 	.db #0x2a	; 42
      000CFE 26                    5480 	.db #0x26	; 38
      000CFF 0B                    5481 	.db #0x0b	; 11
      000D00 0B                    5482 	.db #0x0b	; 11
      000D01 0B                    5483 	.db #0x0b	; 11
      000D02 00                    5484 	.db #0x00	; 0
      000D03 17                    5485 	.db #0x17	; 23
      000D04 00                    5486 	.db #0x00	; 0
      000D05 17                    5487 	.db #0x17	; 23
      000D06 00                    5488 	.db #0x00	; 0
      000D07 0B                    5489 	.db #0x0b	; 11
      000D08 0B                    5490 	.db #0x0b	; 11
      000D09 00                    5491 	.db #0x00	; 0
      000D0A 04                    5492 	.db #0x04	; 4
      000D0B 01                    5493 	.db #0x01	; 1
      000D0C 07                    5494 	.db #0x07	; 7
      000D0D 00                    5495 	.db #0x00	; 0
      000D0E 0B                    5496 	.db #0x0b	; 11
      000D0F 0B                    5497 	.db #0x0b	; 11
      000D10 00                    5498 	.db #0x00	; 0
      000D11 00                    5499 	.db #0x00	; 0
      000D12 04                    5500 	.db #0x04	; 4
      000D13 01                    5501 	.db #0x01	; 1
      000D14 07                    5502 	.db #0x07	; 7
      000D15 0B                    5503 	.db #0x0b	; 11
      000D16 0B                    5504 	.db #0x0b	; 11
      000D17 00                    5505 	.db #0x00	; 0
      000D18 00                    5506 	.db #0x00	; 0
      000D19 00                    5507 	.db #0x00	; 0
      000D1A 00                    5508 	.db #0x00	; 0
      000D1B 0B                    5509 	.db #0x0b	; 11
      000D1C 0B                    5510 	.db #0x0b	; 11
      000D1D 00                    5511 	.db #0x00	; 0
      000D1E 17                    5512 	.db #0x17	; 23
      000D1F 00                    5513 	.db #0x00	; 0
      000D20 17                    5514 	.db #0x17	; 23
      000D21 00                    5515 	.db #0x00	; 0
      000D22 0B                    5516 	.db #0x0b	; 11
      000D23 0B                    5517 	.db #0x0b	; 11
      000D24 00                    5518 	.db #0x00	; 0
      000D25 00                    5519 	.db #0x00	; 0
      000D26 0B                    5520 	.db #0x0b	; 11
      000D27 0B                    5521 	.db #0x0b	; 11
      000D28 15                    5522 	.db #0x15	; 21
      000D29 16                    5523 	.db #0x16	; 22
      000D2A 14                    5524 	.db #0x14	; 20
      000D2B 18                    5525 	.db #0x18	; 24
      000D2C 00                    5526 	.db #0x00	; 0
      000D2D 18                    5527 	.db #0x18	; 24
      000D2E 13                    5528 	.db #0x13	; 19
      000D2F 15                    5529 	.db #0x15	; 21
      000D30 16                    5530 	.db #0x16	; 22
      000D31 14                    5531 	.db #0x14	; 20
      000D32 05                    5532 	.db #0x05	; 5
      000D33 02                    5533 	.db #0x02	; 2
      000D34 08                    5534 	.db #0x08	; 8
      000D35 13                    5535 	.db #0x13	; 19
      000D36 15                    5536 	.db #0x15	; 21
      000D37 16                    5537 	.db #0x16	; 22
      000D38 14                    5538 	.db #0x14	; 20
      000D39 00                    5539 	.db #0x00	; 0
      000D3A 05                    5540 	.db #0x05	; 5
      000D3B 02                    5541 	.db #0x02	; 2
      000D3C 08                    5542 	.db #0x08	; 8
      000D3D 0B                    5543 	.db #0x0b	; 11
      000D3E 0B                    5544 	.db #0x0b	; 11
      000D3F 00                    5545 	.db #0x00	; 0
      000D40 17                    5546 	.db #0x17	; 23
      000D41 00                    5547 	.db #0x00	; 0
      000D42 00                    5548 	.db #0x00	; 0
      000D43 0B                    5549 	.db #0x0b	; 11
      000D44 0B                    5550 	.db #0x0b	; 11
      000D45 00                    5551 	.db #0x00	; 0
      000D46 18                    5552 	.db #0x18	; 24
      000D47 00                    5553 	.db #0x00	; 0
      000D48 18                    5554 	.db #0x18	; 24
      000D49 13                    5555 	.db #0x13	; 19
      000D4A 15                    5556 	.db #0x15	; 21
      000D4B 16                    5557 	.db #0x16	; 22
      000D4C 14                    5558 	.db #0x14	; 20
      000D4D 13                    5559 	.db #0x13	; 19
      000D4E 15                    5560 	.db #0x15	; 21
      000D4F 16                    5561 	.db #0x16	; 22
      000D50 0B                    5562 	.db #0x0b	; 11
      000D51 0B                    5563 	.db #0x0b	; 11
      000D52 00                    5564 	.db #0x00	; 0
      000D53 00                    5565 	.db #0x00	; 0
      000D54 00                    5566 	.db #0x00	; 0
      000D55 00                    5567 	.db #0x00	; 0
      000D56 00                    5568 	.db #0x00	; 0
      000D57 0B                    5569 	.db #0x0b	; 11
      000D58 0B                    5570 	.db #0x0b	; 11
      000D59 00                    5571 	.db #0x00	; 0
      000D5A 06                    5572 	.db #0x06	; 6
      000D5B 03                    5573 	.db #0x03	; 3
      000D5C 09                    5574 	.db #0x09	; 9
      000D5D 00                    5575 	.db #0x00	; 0
      000D5E 2D                    5576 	.db #0x2d	; 45
      000D5F 2D                    5577 	.db #0x2d	; 45
      000D60 00                    5578 	.db #0x00	; 0
      000D61 00                    5579 	.db #0x00	; 0
      000D62 06                    5580 	.db #0x06	; 6
      000D63 03                    5581 	.db #0x03	; 3
      000D64 09                    5582 	.db #0x09	; 9
      000D65 0B                    5583 	.db #0x0b	; 11
      000D66 0B                    5584 	.db #0x0b	; 11
      000D67 00                    5585 	.db #0x00	; 0
      000D68 18                    5586 	.db #0x18	; 24
      000D69 1C                    5587 	.db #0x1c	; 28
      000D6A 1A                    5588 	.db #0x1a	; 26
      000D6B 1A                    5589 	.db #0x1a	; 26
      000D6C 1A                    5590 	.db #0x1a	; 26
      000D6D 1A                    5591 	.db #0x1a	; 26
      000D6E 1D                    5592 	.db #0x1d	; 29
      000D6F 00                    5593 	.db #0x00	; 0
      000D70 00                    5594 	.db #0x00	; 0
      000D71 00                    5595 	.db #0x00	; 0
      000D72 0B                    5596 	.db #0x0b	; 11
      000D73 0B                    5597 	.db #0x0b	; 11
      000D74 00                    5598 	.db #0x00	; 0
      000D75 00                    5599 	.db #0x00	; 0
      000D76 0B                    5600 	.db #0x0b	; 11
      000D77 0B                    5601 	.db #0x0b	; 11
      000D78 0B                    5602 	.db #0x0b	; 11
      000D79 0B                    5603 	.db #0x0b	; 11
      000D7A 00                    5604 	.db #0x00	; 0
      000D7B 00                    5605 	.db #0x00	; 0
      000D7C 00                    5606 	.db #0x00	; 0
      000D7D 00                    5607 	.db #0x00	; 0
      000D7E 00                    5608 	.db #0x00	; 0
      000D7F 0B                    5609 	.db #0x0b	; 11
      000D80 0B                    5610 	.db #0x0b	; 11
      000D81 00                    5611 	.db #0x00	; 0
      000D82 00                    5612 	.db #0x00	; 0
      000D83 17                    5613 	.db #0x17	; 23
      000D84 00                    5614 	.db #0x00	; 0
      000D85 00                    5615 	.db #0x00	; 0
      000D86 2D                    5616 	.db #0x2d	; 45
      000D87 2D                    5617 	.db #0x2d	; 45
      000D88 00                    5618 	.db #0x00	; 0
      000D89 00                    5619 	.db #0x00	; 0
      000D8A 00                    5620 	.db #0x00	; 0
      000D8B 00                    5621 	.db #0x00	; 0
      000D8C 13                    5622 	.db #0x13	; 19
      000D8D 15                    5623 	.db #0x15	; 21
      000D8E 16                    5624 	.db #0x16	; 22
      000D8F 14                    5625 	.db #0x14	; 20
      000D90 00                    5626 	.db #0x00	; 0
      000D91 00                    5627 	.db #0x00	; 0
      000D92 13                    5628 	.db #0x13	; 19
      000D93 15                    5629 	.db #0x15	; 21
      000D94 16                    5630 	.db #0x16	; 22
      000D95 14                    5631 	.db #0x14	; 20
      000D96 00                    5632 	.db #0x00	; 0
      000D97 00                    5633 	.db #0x00	; 0
      000D98 00                    5634 	.db #0x00	; 0
      000D99 00                    5635 	.db #0x00	; 0
      000D9A 0B                    5636 	.db #0x0b	; 11
      000D9B 0B                    5637 	.db #0x0b	; 11
      000D9C 17                    5638 	.db #0x17	; 23
      000D9D 00                    5639 	.db #0x00	; 0
      000D9E 0B                    5640 	.db #0x0b	; 11
      000D9F 0B                    5641 	.db #0x0b	; 11
      000DA0 0B                    5642 	.db #0x0b	; 11
      000DA1 0B                    5643 	.db #0x0b	; 11
      000DA2 00                    5644 	.db #0x00	; 0
      000DA3 00                    5645 	.db #0x00	; 0
      000DA4 00                    5646 	.db #0x00	; 0
      000DA5 00                    5647 	.db #0x00	; 0
      000DA6 00                    5648 	.db #0x00	; 0
      000DA7 0B                    5649 	.db #0x0b	; 11
      000DA8 0B                    5650 	.db #0x0b	; 11
      000DA9 00                    5651 	.db #0x00	; 0
      000DAA 00                    5652 	.db #0x00	; 0
      000DAB 18                    5653 	.db #0x18	; 24
      000DAC 00                    5654 	.db #0x00	; 0
      000DAD 00                    5655 	.db #0x00	; 0
      000DAE 2D                    5656 	.db #0x2d	; 45
      000DAF 2D                    5657 	.db #0x2d	; 45
      000DB0 00                    5658 	.db #0x00	; 0
      000DB1 00                    5659 	.db #0x00	; 0
      000DB2 00                    5660 	.db #0x00	; 0
      000DB3 00                    5661 	.db #0x00	; 0
      000DB4 00                    5662 	.db #0x00	; 0
      000DB5 0B                    5663 	.db #0x0b	; 11
      000DB6 0B                    5664 	.db #0x0b	; 11
      000DB7 00                    5665 	.db #0x00	; 0
      000DB8 00                    5666 	.db #0x00	; 0
      000DB9 00                    5667 	.db #0x00	; 0
      000DBA 00                    5668 	.db #0x00	; 0
      000DBB 0B                    5669 	.db #0x0b	; 11
      000DBC 0B                    5670 	.db #0x0b	; 11
      000DBD 00                    5671 	.db #0x00	; 0
      000DBE 00                    5672 	.db #0x00	; 0
      000DBF 00                    5673 	.db #0x00	; 0
      000DC0 00                    5674 	.db #0x00	; 0
      000DC1 00                    5675 	.db #0x00	; 0
      000DC2 0B                    5676 	.db #0x0b	; 11
      000DC3 0B                    5677 	.db #0x0b	; 11
      000DC4 18                    5678 	.db #0x18	; 24
      000DC5 00                    5679 	.db #0x00	; 0
      000DC6 0B                    5680 	.db #0x0b	; 11
      000DC7 0B                    5681 	.db #0x0b	; 11
      000DC8 0B                    5682 	.db #0x0b	; 11
      000DC9 0B                    5683 	.db #0x0b	; 11
      000DCA 00                    5684 	.db #0x00	; 0
      000DCB 04                    5685 	.db #0x04	; 4
      000DCC 01                    5686 	.db #0x01	; 1
      000DCD 07                    5687 	.db #0x07	; 7
      000DCE 19                    5688 	.db #0x19	; 25
      000DCF 1A                    5689 	.db #0x1a	; 26
      000DD0 1A                    5690 	.db #0x1a	; 26
      000DD1 1B                    5691 	.db #0x1b	; 27
      000DD2 00                    5692 	.db #0x00	; 0
      000DD3 00                    5693 	.db #0x00	; 0
      000DD4 00                    5694 	.db #0x00	; 0
      000DD5 00                    5695 	.db #0x00	; 0
      000DD6 2D                    5696 	.db #0x2d	; 45
      000DD7 2D                    5697 	.db #0x2d	; 45
      000DD8 17                    5698 	.db #0x17	; 23
      000DD9 00                    5699 	.db #0x00	; 0
      000DDA 00                    5700 	.db #0x00	; 0
      000DDB 00                    5701 	.db #0x00	; 0
      000DDC 1C                    5702 	.db #0x1c	; 28
      000DDD 1A                    5703 	.db #0x1a	; 26
      000DDE 1A                    5704 	.db #0x1a	; 26
      000DDF 1A                    5705 	.db #0x1a	; 26
      000DE0 1B                    5706 	.db #0x1b	; 27
      000DE1 00                    5707 	.db #0x00	; 0
      000DE2 17                    5708 	.db #0x17	; 23
      000DE3 0B                    5709 	.db #0x0b	; 11
      000DE4 0B                    5710 	.db #0x0b	; 11
      000DE5 00                    5711 	.db #0x00	; 0
      000DE6 04                    5712 	.db #0x04	; 4
      000DE7 01                    5713 	.db #0x01	; 1
      000DE8 07                    5714 	.db #0x07	; 7
      000DE9 19                    5715 	.db #0x19	; 25
      000DEA 1A                    5716 	.db #0x1a	; 26
      000DEB 1A                    5717 	.db #0x1a	; 26
      000DEC 1B                    5718 	.db #0x1b	; 27
      000DED 00                    5719 	.db #0x00	; 0
      000DEE 0B                    5720 	.db #0x0b	; 11
      000DEF 0B                    5721 	.db #0x0b	; 11
      000DF0 0B                    5722 	.db #0x0b	; 11
      000DF1 0B                    5723 	.db #0x0b	; 11
      000DF2 00                    5724 	.db #0x00	; 0
      000DF3 05                    5725 	.db #0x05	; 5
      000DF4 02                    5726 	.db #0x02	; 2
      000DF5 08                    5727 	.db #0x08	; 8
      000DF6 00                    5728 	.db #0x00	; 0
      000DF7 0B                    5729 	.db #0x0b	; 11
      000DF8 0B                    5730 	.db #0x0b	; 11
      000DF9 00                    5731 	.db #0x00	; 0
      000DFA 00                    5732 	.db #0x00	; 0
      000DFB 17                    5733 	.db #0x17	; 23
      000DFC 00                    5734 	.db #0x00	; 0
      000DFD 00                    5735 	.db #0x00	; 0
      000DFE 2D                    5736 	.db #0x2d	; 45
      000DFF 2D                    5737 	.db #0x2d	; 45
      000E00 18                    5738 	.db #0x18	; 24
      000E01 00                    5739 	.db #0x00	; 0
      000E02 00                    5740 	.db #0x00	; 0
      000E03 00                    5741 	.db #0x00	; 0
      000E04 00                    5742 	.db #0x00	; 0
      000E05 0B                    5743 	.db #0x0b	; 11
      000E06 0B                    5744 	.db #0x0b	; 11
      000E07 00                    5745 	.db #0x00	; 0
      000E08 00                    5746 	.db #0x00	; 0
      000E09 00                    5747 	.db #0x00	; 0
      000E0A 18                    5748 	.db #0x18	; 24
      000E0B 0B                    5749 	.db #0x0b	; 11
      000E0C 0B                    5750 	.db #0x0b	; 11
      000E0D 00                    5751 	.db #0x00	; 0
      000E0E 05                    5752 	.db #0x05	; 5
      000E0F 02                    5753 	.db #0x02	; 2
      000E10 08                    5754 	.db #0x08	; 8
      000E11 00                    5755 	.db #0x00	; 0
      000E12 0B                    5756 	.db #0x0b	; 11
      000E13 0B                    5757 	.db #0x0b	; 11
      000E14 00                    5758 	.db #0x00	; 0
      000E15 00                    5759 	.db #0x00	; 0
      000E16 0B                    5760 	.db #0x0b	; 11
      000E17 0B                    5761 	.db #0x0b	; 11
      000E18 0B                    5762 	.db #0x0b	; 11
      000E19 2D                    5763 	.db #0x2d	; 45
      000E1A 00                    5764 	.db #0x00	; 0
      000E1B 06                    5765 	.db #0x06	; 6
      000E1C 03                    5766 	.db #0x03	; 3
      000E1D 09                    5767 	.db #0x09	; 9
      000E1E 00                    5768 	.db #0x00	; 0
      000E1F 0B                    5769 	.db #0x0b	; 11
      000E20 0B                    5770 	.db #0x0b	; 11
      000E21 00                    5771 	.db #0x00	; 0
      000E22 00                    5772 	.db #0x00	; 0
      000E23 18                    5773 	.db #0x18	; 24
      000E24 00                    5774 	.db #0x00	; 0
      000E25 00                    5775 	.db #0x00	; 0
      000E26 2D                    5776 	.db #0x2d	; 45
      000E27 2D                    5777 	.db #0x2d	; 45
      000E28 00                    5778 	.db #0x00	; 0
      000E29 00                    5779 	.db #0x00	; 0
      000E2A 00                    5780 	.db #0x00	; 0
      000E2B 00                    5781 	.db #0x00	; 0
      000E2C 00                    5782 	.db #0x00	; 0
      000E2D 0B                    5783 	.db #0x0b	; 11
      000E2E 0B                    5784 	.db #0x0b	; 11
      000E2F 00                    5785 	.db #0x00	; 0
      000E30 00                    5786 	.db #0x00	; 0
      000E31 00                    5787 	.db #0x00	; 0
      000E32 00                    5788 	.db #0x00	; 0
      000E33 0B                    5789 	.db #0x0b	; 11
      000E34 0B                    5790 	.db #0x0b	; 11
      000E35 00                    5791 	.db #0x00	; 0
      000E36 06                    5792 	.db #0x06	; 6
      000E37 03                    5793 	.db #0x03	; 3
      000E38 09                    5794 	.db #0x09	; 9
      000E39 00                    5795 	.db #0x00	; 0
      000E3A 0B                    5796 	.db #0x0b	; 11
      000E3B 0B                    5797 	.db #0x0b	; 11
      000E3C 00                    5798 	.db #0x00	; 0
      000E3D 00                    5799 	.db #0x00	; 0
      000E3E 0B                    5800 	.db #0x0b	; 11
      000E3F 0B                    5801 	.db #0x0b	; 11
      000E40 1A                    5802 	.db #0x1a	; 26
      000E41 1A                    5803 	.db #0x1a	; 26
      000E42 1B                    5804 	.db #0x1b	; 27
      000E43 00                    5805 	.db #0x00	; 0
      000E44 00                    5806 	.db #0x00	; 0
      000E45 00                    5807 	.db #0x00	; 0
      000E46 00                    5808 	.db #0x00	; 0
      000E47 0B                    5809 	.db #0x0b	; 11
      000E48 0B                    5810 	.db #0x0b	; 11
      000E49 17                    5811 	.db #0x17	; 23
      000E4A 00                    5812 	.db #0x00	; 0
      000E4B 00                    5813 	.db #0x00	; 0
      000E4C 00                    5814 	.db #0x00	; 0
      000E4D 17                    5815 	.db #0x17	; 23
      000E4E 2D                    5816 	.db #0x2d	; 45
      000E4F 1A                    5817 	.db #0x1a	; 26
      000E50 1A                    5818 	.db #0x1a	; 26
      000E51 1A                    5819 	.db #0x1a	; 26
      000E52 1B                    5820 	.db #0x1b	; 27
      000E53 00                    5821 	.db #0x00	; 0
      000E54 17                    5822 	.db #0x17	; 23
      000E55 0B                    5823 	.db #0x0b	; 11
      000E56 0B                    5824 	.db #0x0b	; 11
      000E57 17                    5825 	.db #0x17	; 23
      000E58 00                    5826 	.db #0x00	; 0
      000E59 00                    5827 	.db #0x00	; 0
      000E5A 00                    5828 	.db #0x00	; 0
      000E5B 0B                    5829 	.db #0x0b	; 11
      000E5C 0B                    5830 	.db #0x0b	; 11
      000E5D 00                    5831 	.db #0x00	; 0
      000E5E 00                    5832 	.db #0x00	; 0
      000E5F 00                    5833 	.db #0x00	; 0
      000E60 00                    5834 	.db #0x00	; 0
      000E61 00                    5835 	.db #0x00	; 0
      000E62 0B                    5836 	.db #0x0b	; 11
      000E63 0B                    5837 	.db #0x0b	; 11
      000E64 00                    5838 	.db #0x00	; 0
      000E65 00                    5839 	.db #0x00	; 0
      000E66 0B                    5840 	.db #0x0b	; 11
      000E67 0B                    5841 	.db #0x0b	; 11
      000E68 0B                    5842 	.db #0x0b	; 11
      000E69 0B                    5843 	.db #0x0b	; 11
      000E6A 00                    5844 	.db #0x00	; 0
      000E6B 00                    5845 	.db #0x00	; 0
      000E6C 00                    5846 	.db #0x00	; 0
      000E6D 00                    5847 	.db #0x00	; 0
      000E6E 00                    5848 	.db #0x00	; 0
      000E6F 0B                    5849 	.db #0x0b	; 11
      000E70 0B                    5850 	.db #0x0b	; 11
      000E71 18                    5851 	.db #0x18	; 24
      000E72 00                    5852 	.db #0x00	; 0
      000E73 00                    5853 	.db #0x00	; 0
      000E74 00                    5854 	.db #0x00	; 0
      000E75 18                    5855 	.db #0x18	; 24
      000E76 2D                    5856 	.db #0x2d	; 45
      000E77 2D                    5857 	.db #0x2d	; 45
      000E78 00                    5858 	.db #0x00	; 0
      000E79 00                    5859 	.db #0x00	; 0
      000E7A 00                    5860 	.db #0x00	; 0
      000E7B 00                    5861 	.db #0x00	; 0
      000E7C 18                    5862 	.db #0x18	; 24
      000E7D 0B                    5863 	.db #0x0b	; 11
      000E7E 0B                    5864 	.db #0x0b	; 11
      000E7F 18                    5865 	.db #0x18	; 24
      000E80 00                    5866 	.db #0x00	; 0
      000E81 00                    5867 	.db #0x00	; 0
      000E82 00                    5868 	.db #0x00	; 0
      000E83 0B                    5869 	.db #0x0b	; 11
      000E84 0B                    5870 	.db #0x0b	; 11
      000E85 00                    5871 	.db #0x00	; 0
      000E86 00                    5872 	.db #0x00	; 0
      000E87 00                    5873 	.db #0x00	; 0
      000E88 00                    5874 	.db #0x00	; 0
      000E89 00                    5875 	.db #0x00	; 0
      000E8A 0B                    5876 	.db #0x0b	; 11
      000E8B 0B                    5877 	.db #0x0b	; 11
      000E8C 00                    5878 	.db #0x00	; 0
      000E8D 17                    5879 	.db #0x17	; 23
      000E8E 0B                    5880 	.db #0x0b	; 11
      000E8F 0B                    5881 	.db #0x0b	; 11
      000E90 0B                    5882 	.db #0x0b	; 11
      000E91 0B                    5883 	.db #0x0b	; 11
      000E92 20                    5884 	.db #0x20	; 32
      000E93 21                    5885 	.db #0x21	; 33
      000E94 00                    5886 	.db #0x00	; 0
      000E95 00                    5887 	.db #0x00	; 0
      000E96 00                    5888 	.db #0x00	; 0
      000E97 0B                    5889 	.db #0x0b	; 11
      000E98 0B                    5890 	.db #0x0b	; 11
      000E99 00                    5891 	.db #0x00	; 0
      000E9A 00                    5892 	.db #0x00	; 0
      000E9B 00                    5893 	.db #0x00	; 0
      000E9C 20                    5894 	.db #0x20	; 32
      000E9D 21                    5895 	.db #0x21	; 33
      000E9E 2D                    5896 	.db #0x2d	; 45
      000E9F 2D                    5897 	.db #0x2d	; 45
      000EA0 00                    5898 	.db #0x00	; 0
      000EA1 00                    5899 	.db #0x00	; 0
      000EA2 00                    5900 	.db #0x00	; 0
      000EA3 00                    5901 	.db #0x00	; 0
      000EA4 00                    5902 	.db #0x00	; 0
      000EA5 0B                    5903 	.db #0x0b	; 11
      000EA6 0B                    5904 	.db #0x0b	; 11
      000EA7 20                    5905 	.db #0x20	; 32
      000EA8 21                    5906 	.db #0x21	; 33
      000EA9 00                    5907 	.db #0x00	; 0
      000EAA 00                    5908 	.db #0x00	; 0
      000EAB 0B                    5909 	.db #0x0b	; 11
      000EAC 0B                    5910 	.db #0x0b	; 11
      000EAD 00                    5911 	.db #0x00	; 0
      000EAE 00                    5912 	.db #0x00	; 0
      000EAF 20                    5913 	.db #0x20	; 32
      000EB0 21                    5914 	.db #0x21	; 33
      000EB1 00                    5915 	.db #0x00	; 0
      000EB2 0B                    5916 	.db #0x0b	; 11
      000EB3 0B                    5917 	.db #0x0b	; 11
      000EB4 00                    5918 	.db #0x00	; 0
      000EB5 18                    5919 	.db #0x18	; 24
      000EB6 0B                    5920 	.db #0x0b	; 11
      000EB7 0B                    5921 	.db #0x0b	; 11
      000EB8 0B                    5922 	.db #0x0b	; 11
      000EB9 0B                    5923 	.db #0x0b	; 11
      000EBA 1E                    5924 	.db #0x1e	; 30
      000EBB 1F                    5925 	.db #0x1f	; 31
      000EBC 00                    5926 	.db #0x00	; 0
      000EBD 00                    5927 	.db #0x00	; 0
      000EBE 00                    5928 	.db #0x00	; 0
      000EBF 0B                    5929 	.db #0x0b	; 11
      000EC0 0B                    5930 	.db #0x0b	; 11
      000EC1 22                    5931 	.db #0x22	; 34
      000EC2 23                    5932 	.db #0x23	; 35
      000EC3 00                    5933 	.db #0x00	; 0
      000EC4 1E                    5934 	.db #0x1e	; 30
      000EC5 1F                    5935 	.db #0x1f	; 31
      000EC6 2D                    5936 	.db #0x2d	; 45
      000EC7 2D                    5937 	.db #0x2d	; 45
      000EC8 00                    5938 	.db #0x00	; 0
      000EC9 00                    5939 	.db #0x00	; 0
      000ECA 00                    5940 	.db #0x00	; 0
      000ECB 22                    5941 	.db #0x22	; 34
      000ECC 23                    5942 	.db #0x23	; 35
      000ECD 0B                    5943 	.db #0x0b	; 11
      000ECE 0B                    5944 	.db #0x0b	; 11
      000ECF 1E                    5945 	.db #0x1e	; 30
      000ED0 1F                    5946 	.db #0x1f	; 31
      000ED1 00                    5947 	.db #0x00	; 0
      000ED2 00                    5948 	.db #0x00	; 0
      000ED3 0B                    5949 	.db #0x0b	; 11
      000ED4 0B                    5950 	.db #0x0b	; 11
      000ED5 22                    5951 	.db #0x22	; 34
      000ED6 23                    5952 	.db #0x23	; 35
      000ED7 1E                    5953 	.db #0x1e	; 30
      000ED8 1F                    5954 	.db #0x1f	; 31
      000ED9 00                    5955 	.db #0x00	; 0
      000EDA 0B                    5956 	.db #0x0b	; 11
      000EDB 0B                    5957 	.db #0x0b	; 11
      000EDC 22                    5958 	.db #0x22	; 34
      000EDD 23                    5959 	.db #0x23	; 35
      000EDE 0B                    5960 	.db #0x0b	; 11
      000EDF 0B                    5961 	.db #0x0b	; 11
      000EE0 24                    5962 	.db #0x24	; 36
      000EE1 24                    5963 	.db #0x24	; 36
      000EE2 24                    5964 	.db #0x24	; 36
      000EE3 24                    5965 	.db #0x24	; 36
      000EE4 24                    5966 	.db #0x24	; 36
      000EE5 24                    5967 	.db #0x24	; 36
      000EE6 24                    5968 	.db #0x24	; 36
      000EE7 24                    5969 	.db #0x24	; 36
      000EE8 24                    5970 	.db #0x24	; 36
      000EE9 24                    5971 	.db #0x24	; 36
      000EEA 24                    5972 	.db #0x24	; 36
      000EEB 24                    5973 	.db #0x24	; 36
      000EEC 24                    5974 	.db #0x24	; 36
      000EED 24                    5975 	.db #0x24	; 36
      000EEE 24                    5976 	.db #0x24	; 36
      000EEF 24                    5977 	.db #0x24	; 36
      000EF0 24                    5978 	.db #0x24	; 36
      000EF1 24                    5979 	.db #0x24	; 36
      000EF2 24                    5980 	.db #0x24	; 36
      000EF3 24                    5981 	.db #0x24	; 36
      000EF4 24                    5982 	.db #0x24	; 36
      000EF5 24                    5983 	.db #0x24	; 36
      000EF6 24                    5984 	.db #0x24	; 36
      000EF7 24                    5985 	.db #0x24	; 36
      000EF8 24                    5986 	.db #0x24	; 36
      000EF9 24                    5987 	.db #0x24	; 36
      000EFA 24                    5988 	.db #0x24	; 36
      000EFB 24                    5989 	.db #0x24	; 36
      000EFC 24                    5990 	.db #0x24	; 36
      000EFD 24                    5991 	.db #0x24	; 36
      000EFE 24                    5992 	.db #0x24	; 36
      000EFF 24                    5993 	.db #0x24	; 36
      000F00 24                    5994 	.db #0x24	; 36
      000F01 24                    5995 	.db #0x24	; 36
      000F02 24                    5996 	.db #0x24	; 36
      000F03 24                    5997 	.db #0x24	; 36
      000F04 24                    5998 	.db #0x24	; 36
      000F05 24                    5999 	.db #0x24	; 36
      000F06 24                    6000 	.db #0x24	; 36
      000F07 24                    6001 	.db #0x24	; 36
      000F08 25                    6002 	.db #0x25	; 37
      000F09 25                    6003 	.db #0x25	; 37
      000F0A 25                    6004 	.db #0x25	; 37
      000F0B 25                    6005 	.db #0x25	; 37
      000F0C 25                    6006 	.db #0x25	; 37
      000F0D 25                    6007 	.db #0x25	; 37
      000F0E 25                    6008 	.db #0x25	; 37
      000F0F 25                    6009 	.db #0x25	; 37
      000F10 25                    6010 	.db #0x25	; 37
      000F11 25                    6011 	.db #0x25	; 37
      000F12 25                    6012 	.db #0x25	; 37
      000F13 25                    6013 	.db #0x25	; 37
      000F14 25                    6014 	.db #0x25	; 37
      000F15 25                    6015 	.db #0x25	; 37
      000F16 25                    6016 	.db #0x25	; 37
      000F17 25                    6017 	.db #0x25	; 37
      000F18 25                    6018 	.db #0x25	; 37
      000F19 25                    6019 	.db #0x25	; 37
      000F1A 25                    6020 	.db #0x25	; 37
      000F1B 25                    6021 	.db #0x25	; 37
      000F1C 25                    6022 	.db #0x25	; 37
      000F1D 25                    6023 	.db #0x25	; 37
      000F1E 25                    6024 	.db #0x25	; 37
      000F1F 25                    6025 	.db #0x25	; 37
      000F20 25                    6026 	.db #0x25	; 37
      000F21 25                    6027 	.db #0x25	; 37
      000F22 25                    6028 	.db #0x25	; 37
      000F23 25                    6029 	.db #0x25	; 37
      000F24 25                    6030 	.db #0x25	; 37
      000F25 25                    6031 	.db #0x25	; 37
      000F26 25                    6032 	.db #0x25	; 37
      000F27 25                    6033 	.db #0x25	; 37
      000F28 25                    6034 	.db #0x25	; 37
      000F29 25                    6035 	.db #0x25	; 37
      000F2A 25                    6036 	.db #0x25	; 37
      000F2B 25                    6037 	.db #0x25	; 37
      000F2C 25                    6038 	.db #0x25	; 37
      000F2D 25                    6039 	.db #0x25	; 37
      000F2E 25                    6040 	.db #0x25	; 37
      000F2F 25                    6041 	.db #0x25	; 37
      000F30 25                    6042 	.db #0x25	; 37
      000F31 25                    6043 	.db #0x25	; 37
      000F32 25                    6044 	.db #0x25	; 37
      000F33 25                    6045 	.db #0x25	; 37
      000F34 25                    6046 	.db #0x25	; 37
      000F35 25                    6047 	.db #0x25	; 37
      000F36 25                    6048 	.db #0x25	; 37
      000F37 25                    6049 	.db #0x25	; 37
      000F38 25                    6050 	.db #0x25	; 37
      000F39 25                    6051 	.db #0x25	; 37
      000F3A 25                    6052 	.db #0x25	; 37
      000F3B 25                    6053 	.db #0x25	; 37
      000F3C 25                    6054 	.db #0x25	; 37
      000F3D 25                    6055 	.db #0x25	; 37
      000F3E 25                    6056 	.db #0x25	; 37
      000F3F 25                    6057 	.db #0x25	; 37
      000F40 25                    6058 	.db #0x25	; 37
      000F41 25                    6059 	.db #0x25	; 37
      000F42 25                    6060 	.db #0x25	; 37
      000F43 25                    6061 	.db #0x25	; 37
      000F44 25                    6062 	.db #0x25	; 37
      000F45 25                    6063 	.db #0x25	; 37
      000F46 25                    6064 	.db #0x25	; 37
      000F47 25                    6065 	.db #0x25	; 37
      000F48 25                    6066 	.db #0x25	; 37
      000F49 25                    6067 	.db #0x25	; 37
      000F4A 25                    6068 	.db #0x25	; 37
      000F4B 25                    6069 	.db #0x25	; 37
      000F4C 25                    6070 	.db #0x25	; 37
      000F4D 25                    6071 	.db #0x25	; 37
      000F4E 25                    6072 	.db #0x25	; 37
      000F4F 25                    6073 	.db #0x25	; 37
      000F50 25                    6074 	.db #0x25	; 37
      000F51 25                    6075 	.db #0x25	; 37
      000F52 25                    6076 	.db #0x25	; 37
      000F53 25                    6077 	.db #0x25	; 37
      000F54 25                    6078 	.db #0x25	; 37
      000F55 25                    6079 	.db #0x25	; 37
      000F56 25                    6080 	.db #0x25	; 37
      000F57 25                    6081 	.db #0x25	; 37
      000F58                       6082 __xinit__r_portrait_tile:
      000F58 00                    6083 	.db #0x00	; 0
      000F59 00                    6084 	.db #0x00	; 0
      000F5A 00                    6085 	.db #0x00	; 0
      000F5B 00                    6086 	.db #0x00	; 0
      000F5C 00                    6087 	.db #0x00	; 0
      000F5D 00                    6088 	.db #0x00	; 0
      000F5E 00                    6089 	.db #0x00	; 0
      000F5F 00                    6090 	.db #0x00	; 0
      000F60 00                    6091 	.db #0x00	; 0
      000F61 00                    6092 	.db #0x00	; 0
      000F62 00                    6093 	.db #0x00	; 0
      000F63 00                    6094 	.db #0x00	; 0
      000F64 00                    6095 	.db #0x00	; 0
      000F65 00                    6096 	.db #0x00	; 0
      000F66 00                    6097 	.db #0x00	; 0
      000F67 00                    6098 	.db #0x00	; 0
      000F68 FF                    6099 	.db #0xff	; 255
      000F69 FF                    6100 	.db #0xff	; 255
      000F6A 9B                    6101 	.db #0x9b	; 155
      000F6B A4                    6102 	.db #0xa4	; 164
      000F6C B6                    6103 	.db #0xb6	; 182
      000F6D C9                    6104 	.db #0xc9	; 201
      000F6E B4                    6105 	.db #0xb4	; 180
      000F6F C9                    6106 	.db #0xc9	; 201
      000F70 EA                    6107 	.db #0xea	; 234
      000F71 95                    6108 	.db #0x95	; 149
      000F72 E2                    6109 	.db #0xe2	; 226
      000F73 95                    6110 	.db #0x95	; 149
      000F74 C0                    6111 	.db #0xc0	; 192
      000F75 AB                    6112 	.db #0xab	; 171
      000F76 D4                    6113 	.db #0xd4	; 212
      000F77 AA                    6114 	.db #0xaa	; 170
      000F78 FF                    6115 	.db #0xff	; 255
      000F79 FF                    6116 	.db #0xff	; 255
      000F7A 7F                    6117 	.db #0x7f	; 127
      000F7B 00                    6118 	.db #0x00	; 0
      000F7C EF                    6119 	.db #0xef	; 239
      000F7D 10                    6120 	.db #0x10	; 16
      000F7E EE                    6121 	.db #0xee	; 238
      000F7F 10                    6122 	.db #0x10	; 16
      000F80 EF                    6123 	.db #0xef	; 239
      000F81 10                    6124 	.db #0x10	; 16
      000F82 AE                    6125 	.db #0xae	; 174
      000F83 10                    6126 	.db #0x10	; 16
      000F84 6C                    6127 	.db #0x6c	; 108	'l'
      000F85 11                    6128 	.db #0x11	; 17
      000F86 58                    6129 	.db #0x58	; 88	'X'
      000F87 23                    6130 	.db #0x23	; 35
      000F88 FF                    6131 	.db #0xff	; 255
      000F89 FF                    6132 	.db #0xff	; 255
      000F8A FF                    6133 	.db #0xff	; 255
      000F8B 01                    6134 	.db #0x01	; 1
      000F8C 7F                    6135 	.db #0x7f	; 127
      000F8D 01                    6136 	.db #0x01	; 1
      000F8E 7D                    6137 	.db #0x7d	; 125
      000F8F 81                    6138 	.db #0x81	; 129
      000F90 79                    6139 	.db #0x79	; 121	'y'
      000F91 83                    6140 	.db #0x83	; 131
      000F92 6D                    6141 	.db #0x6d	; 109	'm'
      000F93 83                    6142 	.db #0x83	; 131
      000F94 DF                    6143 	.db #0xdf	; 223
      000F95 01                    6144 	.db #0x01	; 1
      000F96 9F                    6145 	.db #0x9f	; 159
      000F97 21                    6146 	.db #0x21	; 33
      000F98 80                    6147 	.db #0x80	; 128
      000F99 B5                    6148 	.db #0xb5	; 181
      000F9A 9F                    6149 	.db #0x9f	; 159
      000F9B A0                    6150 	.db #0xa0	; 160
      000F9C 9F                    6151 	.db #0x9f	; 159
      000F9D A7                    6152 	.db #0xa7	; 167
      000F9E 89                    6153 	.db #0x89	; 137
      000F9F C9                    6154 	.db #0xc9	; 201
      000FA0 A9                    6155 	.db #0xa9	; 169
      000FA1 C9                    6156 	.db #0xc9	; 201
      000FA2 A9                    6157 	.db #0xa9	; 169
      000FA3 C1                    6158 	.db #0xc1	; 193
      000FA4 A9                    6159 	.db #0xa9	; 169
      000FA5 C1                    6160 	.db #0xc1	; 193
      000FA6 B7                    6161 	.db #0xb7	; 183
      000FA7 D0                    6162 	.db #0xd0	; 208
      000FA8 03                    6163 	.db #0x03	; 3
      000FA9 DC                    6164 	.db #0xdc	; 220
      000FAA FF                    6165 	.db #0xff	; 255
      000FAB 41                    6166 	.db #0x41	; 65	'A'
      000FAC FF                    6167 	.db #0xff	; 255
      000FAD 80                    6168 	.db #0x80	; 128
      000FAE 7F                    6169 	.db #0x7f	; 127
      000FAF 00                    6170 	.db #0x00	; 0
      000FB0 FF                    6171 	.db #0xff	; 255
      000FB1 80                    6172 	.db #0x80	; 128
      000FB2 FF                    6173 	.db #0xff	; 255
      000FB3 80                    6174 	.db #0x80	; 128
      000FB4 FF                    6175 	.db #0xff	; 255
      000FB5 80                    6176 	.db #0x80	; 128
      000FB6 FF                    6177 	.db #0xff	; 255
      000FB7 00                    6178 	.db #0x00	; 0
      000FB8 21                    6179 	.db #0x21	; 33
      000FB9 DF                    6180 	.db #0xdf	; 223
      000FBA FD                    6181 	.db #0xfd	; 253
      000FBB 03                    6182 	.db #0x03	; 3
      000FBC FD                    6183 	.db #0xfd	; 253
      000FBD F3                    6184 	.db #0xf3	; 243
      000FBE 2F                    6185 	.db #0x2f	; 47
      000FBF 2B                    6186 	.db #0x2b	; 43
      000FC0 3F                    6187 	.db #0x3f	; 63
      000FC1 3B                    6188 	.db #0x3b	; 59
      000FC2 3F                    6189 	.db #0x3f	; 63
      000FC3 31                    6190 	.db #0x31	; 49	'1'
      000FC4 3F                    6191 	.db #0x3f	; 63
      000FC5 31                    6192 	.db #0x31	; 49	'1'
      000FC6 FF                    6193 	.db #0xff	; 255
      000FC7 01                    6194 	.db #0x01	; 1
      000FC8 97                    6195 	.db #0x97	; 151
      000FC9 F0                    6196 	.db #0xf0	; 240
      000FCA 9B                    6197 	.db #0x9b	; 155
      000FCB E8                    6198 	.db #0xe8	; 232
      000FCC 9B                    6199 	.db #0x9b	; 155
      000FCD E8                    6200 	.db #0xe8	; 232
      000FCE B4                    6201 	.db #0xb4	; 180
      000FCF CC                    6202 	.db #0xcc	; 204
      000FD0 B3                    6203 	.db #0xb3	; 179
      000FD1 CF                    6204 	.db #0xcf	; 207
      000FD2 B0                    6205 	.db #0xb0	; 176
      000FD3 CF                    6206 	.db #0xcf	; 207
      000FD4 A7                    6207 	.db #0xa7	; 167
      000FD5 D8                    6208 	.db #0xd8	; 216
      000FD6 FF                    6209 	.db #0xff	; 255
      000FD7 FF                    6210 	.db #0xff	; 255
      000FD8 FF                    6211 	.db #0xff	; 255
      000FD9 00                    6212 	.db #0x00	; 0
      000FDA FF                    6213 	.db #0xff	; 255
      000FDB 00                    6214 	.db #0x00	; 0
      000FDC FF                    6215 	.db #0xff	; 255
      000FDD 06                    6216 	.db #0x06	; 6
      000FDE 3F                    6217 	.db #0x3f	; 63
      000FDF C6                    6218 	.db #0xc6	; 198
      000FE0 00                    6219 	.db #0x00	; 0
      000FE1 3F                    6220 	.db #0x3f	; 63
      000FE2 C0                    6221 	.db #0xc0	; 192
      000FE3 C0                    6222 	.db #0xc0	; 192
      000FE4 FF                    6223 	.db #0xff	; 255
      000FE5 3F                    6224 	.db #0x3f	; 63
      000FE6 FF                    6225 	.db #0xff	; 255
      000FE7 FF                    6226 	.db #0xff	; 255
      000FE8 FF                    6227 	.db #0xff	; 255
      000FE9 01                    6228 	.db #0x01	; 1
      000FEA FF                    6229 	.db #0xff	; 255
      000FEB 03                    6230 	.db #0x03	; 3
      000FEC FF                    6231 	.db #0xff	; 255
      000FED 03                    6232 	.db #0x03	; 3
      000FEE FD                    6233 	.db #0xfd	; 253
      000FEF 07                    6234 	.db #0x07	; 7
      000FF0 F9                    6235 	.db #0xf9	; 249
      000FF1 0F                    6236 	.db #0x0f	; 15
      000FF2 F1                    6237 	.db #0xf1	; 241
      000FF3 3F                    6238 	.db #0x3f	; 63
      000FF4 FD                    6239 	.db #0xfd	; 253
      000FF5 C3                    6240 	.db #0xc3	; 195
      000FF6 FF                    6241 	.db #0xff	; 255
      000FF7 FF                    6242 	.db #0xff	; 255
      000FF8 C7                    6243 	.db #0xc7	; 199
      000FF9 C7                    6244 	.db #0xc7	; 199
      000FFA BB                    6245 	.db #0xbb	; 187
      000FFB BB                    6246 	.db #0xbb	; 187
      000FFC 7D                    6247 	.db #0x7d	; 125
      000FFD 7D                    6248 	.db #0x7d	; 125
      000FFE 7D                    6249 	.db #0x7d	; 125
      000FFF 7D                    6250 	.db #0x7d	; 125
      001000 01                    6251 	.db #0x01	; 1
      001001 01                    6252 	.db #0x01	; 1
      001002 7D                    6253 	.db #0x7d	; 125
      001003 7D                    6254 	.db #0x7d	; 125
      001004 7D                    6255 	.db #0x7d	; 125
      001005 7D                    6256 	.db #0x7d	; 125
      001006 FF                    6257 	.db #0xff	; 255
      001007 FF                    6258 	.db #0xff	; 255
      001008 03                    6259 	.db #0x03	; 3
      001009 03                    6260 	.db #0x03	; 3
      00100A 7D                    6261 	.db #0x7d	; 125
      00100B 7D                    6262 	.db #0x7d	; 125
      00100C 7D                    6263 	.db #0x7d	; 125
      00100D 7D                    6264 	.db #0x7d	; 125
      00100E 43                    6265 	.db #0x43	; 67	'C'
      00100F 43                    6266 	.db #0x43	; 67	'C'
      001010 7D                    6267 	.db #0x7d	; 125
      001011 7D                    6268 	.db #0x7d	; 125
      001012 7D                    6269 	.db #0x7d	; 125
      001013 7D                    6270 	.db #0x7d	; 125
      001014 03                    6271 	.db #0x03	; 3
      001015 03                    6272 	.db #0x03	; 3
      001016 FF                    6273 	.db #0xff	; 255
      001017 FF                    6274 	.db #0xff	; 255
      001018 83                    6275 	.db #0x83	; 131
      001019 83                    6276 	.db #0x83	; 131
      00101A 7D                    6277 	.db #0x7d	; 125
      00101B 7D                    6278 	.db #0x7d	; 125
      00101C 7F                    6279 	.db #0x7f	; 127
      00101D 7F                    6280 	.db #0x7f	; 127
      00101E 7F                    6281 	.db #0x7f	; 127
      00101F 7F                    6282 	.db #0x7f	; 127
      001020 7F                    6283 	.db #0x7f	; 127
      001021 7F                    6284 	.db #0x7f	; 127
      001022 7D                    6285 	.db #0x7d	; 125
      001023 7D                    6286 	.db #0x7d	; 125
      001024 83                    6287 	.db #0x83	; 131
      001025 83                    6288 	.db #0x83	; 131
      001026 FF                    6289 	.db #0xff	; 255
      001027 FF                    6290 	.db #0xff	; 255
      001028 07                    6291 	.db #0x07	; 7
      001029 07                    6292 	.db #0x07	; 7
      00102A 7B                    6293 	.db #0x7b	; 123
      00102B 7B                    6294 	.db #0x7b	; 123
      00102C 7D                    6295 	.db #0x7d	; 125
      00102D 7D                    6296 	.db #0x7d	; 125
      00102E 7D                    6297 	.db #0x7d	; 125
      00102F 7D                    6298 	.db #0x7d	; 125
      001030 7D                    6299 	.db #0x7d	; 125
      001031 7D                    6300 	.db #0x7d	; 125
      001032 7B                    6301 	.db #0x7b	; 123
      001033 7B                    6302 	.db #0x7b	; 123
      001034 07                    6303 	.db #0x07	; 7
      001035 07                    6304 	.db #0x07	; 7
      001036 FF                    6305 	.db #0xff	; 255
      001037 FF                    6306 	.db #0xff	; 255
      001038 01                    6307 	.db #0x01	; 1
      001039 01                    6308 	.db #0x01	; 1
      00103A 7F                    6309 	.db #0x7f	; 127
      00103B 7F                    6310 	.db #0x7f	; 127
      00103C 7F                    6311 	.db #0x7f	; 127
      00103D 7F                    6312 	.db #0x7f	; 127
      00103E 03                    6313 	.db #0x03	; 3
      00103F 03                    6314 	.db #0x03	; 3
      001040 7F                    6315 	.db #0x7f	; 127
      001041 7F                    6316 	.db #0x7f	; 127
      001042 7F                    6317 	.db #0x7f	; 127
      001043 7F                    6318 	.db #0x7f	; 127
      001044 01                    6319 	.db #0x01	; 1
      001045 01                    6320 	.db #0x01	; 1
      001046 FF                    6321 	.db #0xff	; 255
      001047 FF                    6322 	.db #0xff	; 255
      001048 01                    6323 	.db #0x01	; 1
      001049 01                    6324 	.db #0x01	; 1
      00104A 7F                    6325 	.db #0x7f	; 127
      00104B 7F                    6326 	.db #0x7f	; 127
      00104C 7F                    6327 	.db #0x7f	; 127
      00104D 7F                    6328 	.db #0x7f	; 127
      00104E 03                    6329 	.db #0x03	; 3
      00104F 03                    6330 	.db #0x03	; 3
      001050 7F                    6331 	.db #0x7f	; 127
      001051 7F                    6332 	.db #0x7f	; 127
      001052 7F                    6333 	.db #0x7f	; 127
      001053 7F                    6334 	.db #0x7f	; 127
      001054 7F                    6335 	.db #0x7f	; 127
      001055 7F                    6336 	.db #0x7f	; 127
      001056 FF                    6337 	.db #0xff	; 255
      001057 FF                    6338 	.db #0xff	; 255
      001058 83                    6339 	.db #0x83	; 131
      001059 83                    6340 	.db #0x83	; 131
      00105A 7D                    6341 	.db #0x7d	; 125
      00105B 7D                    6342 	.db #0x7d	; 125
      00105C 7F                    6343 	.db #0x7f	; 127
      00105D 7F                    6344 	.db #0x7f	; 127
      00105E 7F                    6345 	.db #0x7f	; 127
      00105F 7F                    6346 	.db #0x7f	; 127
      001060 41                    6347 	.db #0x41	; 65	'A'
      001061 41                    6348 	.db #0x41	; 65	'A'
      001062 7D                    6349 	.db #0x7d	; 125
      001063 7D                    6350 	.db #0x7d	; 125
      001064 81                    6351 	.db #0x81	; 129
      001065 81                    6352 	.db #0x81	; 129
      001066 FF                    6353 	.db #0xff	; 255
      001067 FF                    6354 	.db #0xff	; 255
      001068 7D                    6355 	.db #0x7d	; 125
      001069 7D                    6356 	.db #0x7d	; 125
      00106A 7D                    6357 	.db #0x7d	; 125
      00106B 7D                    6358 	.db #0x7d	; 125
      00106C 7D                    6359 	.db #0x7d	; 125
      00106D 7D                    6360 	.db #0x7d	; 125
      00106E 01                    6361 	.db #0x01	; 1
      00106F 01                    6362 	.db #0x01	; 1
      001070 7D                    6363 	.db #0x7d	; 125
      001071 7D                    6364 	.db #0x7d	; 125
      001072 7D                    6365 	.db #0x7d	; 125
      001073 7D                    6366 	.db #0x7d	; 125
      001074 7D                    6367 	.db #0x7d	; 125
      001075 7D                    6368 	.db #0x7d	; 125
      001076 FF                    6369 	.db #0xff	; 255
      001077 FF                    6370 	.db #0xff	; 255
      001078 01                    6371 	.db #0x01	; 1
      001079 01                    6372 	.db #0x01	; 1
      00107A EF                    6373 	.db #0xef	; 239
      00107B EF                    6374 	.db #0xef	; 239
      00107C EF                    6375 	.db #0xef	; 239
      00107D EF                    6376 	.db #0xef	; 239
      00107E EF                    6377 	.db #0xef	; 239
      00107F EF                    6378 	.db #0xef	; 239
      001080 EF                    6379 	.db #0xef	; 239
      001081 EF                    6380 	.db #0xef	; 239
      001082 EF                    6381 	.db #0xef	; 239
      001083 EF                    6382 	.db #0xef	; 239
      001084 01                    6383 	.db #0x01	; 1
      001085 01                    6384 	.db #0x01	; 1
      001086 FF                    6385 	.db #0xff	; 255
      001087 FF                    6386 	.db #0xff	; 255
      001088 F1                    6387 	.db #0xf1	; 241
      001089 F1                    6388 	.db #0xf1	; 241
      00108A FB                    6389 	.db #0xfb	; 251
      00108B FB                    6390 	.db #0xfb	; 251
      00108C FB                    6391 	.db #0xfb	; 251
      00108D FB                    6392 	.db #0xfb	; 251
      00108E FB                    6393 	.db #0xfb	; 251
      00108F FB                    6394 	.db #0xfb	; 251
      001090 FB                    6395 	.db #0xfb	; 251
      001091 FB                    6396 	.db #0xfb	; 251
      001092 7B                    6397 	.db #0x7b	; 123
      001093 7B                    6398 	.db #0x7b	; 123
      001094 87                    6399 	.db #0x87	; 135
      001095 87                    6400 	.db #0x87	; 135
      001096 FF                    6401 	.db #0xff	; 255
      001097 FF                    6402 	.db #0xff	; 255
      001098 7B                    6403 	.db #0x7b	; 123
      001099 7B                    6404 	.db #0x7b	; 123
      00109A 77                    6405 	.db #0x77	; 119	'w'
      00109B 77                    6406 	.db #0x77	; 119	'w'
      00109C 6F                    6407 	.db #0x6f	; 111	'o'
      00109D 6F                    6408 	.db #0x6f	; 111	'o'
      00109E 0F                    6409 	.db #0x0f	; 15
      00109F 0F                    6410 	.db #0x0f	; 15
      0010A0 77                    6411 	.db #0x77	; 119	'w'
      0010A1 77                    6412 	.db #0x77	; 119	'w'
      0010A2 7B                    6413 	.db #0x7b	; 123
      0010A3 7B                    6414 	.db #0x7b	; 123
      0010A4 7D                    6415 	.db #0x7d	; 125
      0010A5 7D                    6416 	.db #0x7d	; 125
      0010A6 FF                    6417 	.db #0xff	; 255
      0010A7 FF                    6418 	.db #0xff	; 255
      0010A8 7F                    6419 	.db #0x7f	; 127
      0010A9 7F                    6420 	.db #0x7f	; 127
      0010AA 7F                    6421 	.db #0x7f	; 127
      0010AB 7F                    6422 	.db #0x7f	; 127
      0010AC 7F                    6423 	.db #0x7f	; 127
      0010AD 7F                    6424 	.db #0x7f	; 127
      0010AE 7F                    6425 	.db #0x7f	; 127
      0010AF 7F                    6426 	.db #0x7f	; 127
      0010B0 7F                    6427 	.db #0x7f	; 127
      0010B1 7F                    6428 	.db #0x7f	; 127
      0010B2 7F                    6429 	.db #0x7f	; 127
      0010B3 7F                    6430 	.db #0x7f	; 127
      0010B4 01                    6431 	.db #0x01	; 1
      0010B5 01                    6432 	.db #0x01	; 1
      0010B6 FF                    6433 	.db #0xff	; 255
      0010B7 FF                    6434 	.db #0xff	; 255
      0010B8 7D                    6435 	.db #0x7d	; 125
      0010B9 7D                    6436 	.db #0x7d	; 125
      0010BA 39                    6437 	.db #0x39	; 57	'9'
      0010BB 39                    6438 	.db #0x39	; 57	'9'
      0010BC 55                    6439 	.db #0x55	; 85	'U'
      0010BD 55                    6440 	.db #0x55	; 85	'U'
      0010BE 6D                    6441 	.db #0x6d	; 109	'm'
      0010BF 6D                    6442 	.db #0x6d	; 109	'm'
      0010C0 7D                    6443 	.db #0x7d	; 125
      0010C1 7D                    6444 	.db #0x7d	; 125
      0010C2 7D                    6445 	.db #0x7d	; 125
      0010C3 7D                    6446 	.db #0x7d	; 125
      0010C4 7D                    6447 	.db #0x7d	; 125
      0010C5 7D                    6448 	.db #0x7d	; 125
      0010C6 FF                    6449 	.db #0xff	; 255
      0010C7 FF                    6450 	.db #0xff	; 255
      0010C8 7D                    6451 	.db #0x7d	; 125
      0010C9 7D                    6452 	.db #0x7d	; 125
      0010CA 3D                    6453 	.db #0x3d	; 61
      0010CB 3D                    6454 	.db #0x3d	; 61
      0010CC 5D                    6455 	.db #0x5d	; 93
      0010CD 5D                    6456 	.db #0x5d	; 93
      0010CE 6D                    6457 	.db #0x6d	; 109	'm'
      0010CF 6D                    6458 	.db #0x6d	; 109	'm'
      0010D0 75                    6459 	.db #0x75	; 117	'u'
      0010D1 75                    6460 	.db #0x75	; 117	'u'
      0010D2 79                    6461 	.db #0x79	; 121	'y'
      0010D3 79                    6462 	.db #0x79	; 121	'y'
      0010D4 7D                    6463 	.db #0x7d	; 125
      0010D5 7D                    6464 	.db #0x7d	; 125
      0010D6 FF                    6465 	.db #0xff	; 255
      0010D7 FF                    6466 	.db #0xff	; 255
      0010D8 83                    6467 	.db #0x83	; 131
      0010D9 83                    6468 	.db #0x83	; 131
      0010DA 7D                    6469 	.db #0x7d	; 125
      0010DB 7D                    6470 	.db #0x7d	; 125
      0010DC 7D                    6471 	.db #0x7d	; 125
      0010DD 7D                    6472 	.db #0x7d	; 125
      0010DE 7D                    6473 	.db #0x7d	; 125
      0010DF 7D                    6474 	.db #0x7d	; 125
      0010E0 7D                    6475 	.db #0x7d	; 125
      0010E1 7D                    6476 	.db #0x7d	; 125
      0010E2 7D                    6477 	.db #0x7d	; 125
      0010E3 7D                    6478 	.db #0x7d	; 125
      0010E4 83                    6479 	.db #0x83	; 131
      0010E5 83                    6480 	.db #0x83	; 131
      0010E6 FF                    6481 	.db #0xff	; 255
      0010E7 FF                    6482 	.db #0xff	; 255
      0010E8 03                    6483 	.db #0x03	; 3
      0010E9 03                    6484 	.db #0x03	; 3
      0010EA 7D                    6485 	.db #0x7d	; 125
      0010EB 7D                    6486 	.db #0x7d	; 125
      0010EC 7D                    6487 	.db #0x7d	; 125
      0010ED 7D                    6488 	.db #0x7d	; 125
      0010EE 7D                    6489 	.db #0x7d	; 125
      0010EF 7D                    6490 	.db #0x7d	; 125
      0010F0 03                    6491 	.db #0x03	; 3
      0010F1 03                    6492 	.db #0x03	; 3
      0010F2 7F                    6493 	.db #0x7f	; 127
      0010F3 7F                    6494 	.db #0x7f	; 127
      0010F4 7F                    6495 	.db #0x7f	; 127
      0010F5 7F                    6496 	.db #0x7f	; 127
      0010F6 FF                    6497 	.db #0xff	; 255
      0010F7 FF                    6498 	.db #0xff	; 255
      0010F8 83                    6499 	.db #0x83	; 131
      0010F9 83                    6500 	.db #0x83	; 131
      0010FA 7D                    6501 	.db #0x7d	; 125
      0010FB 7D                    6502 	.db #0x7d	; 125
      0010FC 7D                    6503 	.db #0x7d	; 125
      0010FD 7D                    6504 	.db #0x7d	; 125
      0010FE 6D                    6505 	.db #0x6d	; 109	'm'
      0010FF 6D                    6506 	.db #0x6d	; 109	'm'
      001100 75                    6507 	.db #0x75	; 117	'u'
      001101 75                    6508 	.db #0x75	; 117	'u'
      001102 7B                    6509 	.db #0x7b	; 123
      001103 7B                    6510 	.db #0x7b	; 123
      001104 85                    6511 	.db #0x85	; 133
      001105 85                    6512 	.db #0x85	; 133
      001106 FF                    6513 	.db #0xff	; 255
      001107 FF                    6514 	.db #0xff	; 255
      001108 83                    6515 	.db #0x83	; 131
      001109 83                    6516 	.db #0x83	; 131
      00110A 7D                    6517 	.db #0x7d	; 125
      00110B 7D                    6518 	.db #0x7d	; 125
      00110C 7D                    6519 	.db #0x7d	; 125
      00110D 7D                    6520 	.db #0x7d	; 125
      00110E 7B                    6521 	.db #0x7b	; 123
      00110F 7B                    6522 	.db #0x7b	; 123
      001110 07                    6523 	.db #0x07	; 7
      001111 07                    6524 	.db #0x07	; 7
      001112 7B                    6525 	.db #0x7b	; 123
      001113 7B                    6526 	.db #0x7b	; 123
      001114 7D                    6527 	.db #0x7d	; 125
      001115 7D                    6528 	.db #0x7d	; 125
      001116 FF                    6529 	.db #0xff	; 255
      001117 FF                    6530 	.db #0xff	; 255
      001118 83                    6531 	.db #0x83	; 131
      001119 83                    6532 	.db #0x83	; 131
      00111A 7F                    6533 	.db #0x7f	; 127
      00111B 7F                    6534 	.db #0x7f	; 127
      00111C 7F                    6535 	.db #0x7f	; 127
      00111D 7F                    6536 	.db #0x7f	; 127
      00111E 87                    6537 	.db #0x87	; 135
      00111F 87                    6538 	.db #0x87	; 135
      001120 FB                    6539 	.db #0xfb	; 251
      001121 FB                    6540 	.db #0xfb	; 251
      001122 FB                    6541 	.db #0xfb	; 251
      001123 FB                    6542 	.db #0xfb	; 251
      001124 07                    6543 	.db #0x07	; 7
      001125 07                    6544 	.db #0x07	; 7
      001126 FF                    6545 	.db #0xff	; 255
      001127 FF                    6546 	.db #0xff	; 255
      001128 01                    6547 	.db #0x01	; 1
      001129 01                    6548 	.db #0x01	; 1
      00112A EF                    6549 	.db #0xef	; 239
      00112B EF                    6550 	.db #0xef	; 239
      00112C EF                    6551 	.db #0xef	; 239
      00112D EF                    6552 	.db #0xef	; 239
      00112E EF                    6553 	.db #0xef	; 239
      00112F EF                    6554 	.db #0xef	; 239
      001130 EF                    6555 	.db #0xef	; 239
      001131 EF                    6556 	.db #0xef	; 239
      001132 EF                    6557 	.db #0xef	; 239
      001133 EF                    6558 	.db #0xef	; 239
      001134 EF                    6559 	.db #0xef	; 239
      001135 EF                    6560 	.db #0xef	; 239
      001136 FF                    6561 	.db #0xff	; 255
      001137 FF                    6562 	.db #0xff	; 255
      001138 7D                    6563 	.db #0x7d	; 125
      001139 7D                    6564 	.db #0x7d	; 125
      00113A 7D                    6565 	.db #0x7d	; 125
      00113B 7D                    6566 	.db #0x7d	; 125
      00113C 7D                    6567 	.db #0x7d	; 125
      00113D 7D                    6568 	.db #0x7d	; 125
      00113E 7D                    6569 	.db #0x7d	; 125
      00113F 7D                    6570 	.db #0x7d	; 125
      001140 7D                    6571 	.db #0x7d	; 125
      001141 7D                    6572 	.db #0x7d	; 125
      001142 7D                    6573 	.db #0x7d	; 125
      001143 7D                    6574 	.db #0x7d	; 125
      001144 83                    6575 	.db #0x83	; 131
      001145 83                    6576 	.db #0x83	; 131
      001146 FF                    6577 	.db #0xff	; 255
      001147 FF                    6578 	.db #0xff	; 255
      001148 7D                    6579 	.db #0x7d	; 125
      001149 7D                    6580 	.db #0x7d	; 125
      00114A 7D                    6581 	.db #0x7d	; 125
      00114B 7D                    6582 	.db #0x7d	; 125
      00114C 7D                    6583 	.db #0x7d	; 125
      00114D 7D                    6584 	.db #0x7d	; 125
      00114E 7D                    6585 	.db #0x7d	; 125
      00114F 7D                    6586 	.db #0x7d	; 125
      001150 BB                    6587 	.db #0xbb	; 187
      001151 BB                    6588 	.db #0xbb	; 187
      001152 D7                    6589 	.db #0xd7	; 215
      001153 D7                    6590 	.db #0xd7	; 215
      001154 EF                    6591 	.db #0xef	; 239
      001155 EF                    6592 	.db #0xef	; 239
      001156 FF                    6593 	.db #0xff	; 255
      001157 FF                    6594 	.db #0xff	; 255
      001158 7D                    6595 	.db #0x7d	; 125
      001159 7D                    6596 	.db #0x7d	; 125
      00115A 7D                    6597 	.db #0x7d	; 125
      00115B 7D                    6598 	.db #0x7d	; 125
      00115C 7D                    6599 	.db #0x7d	; 125
      00115D 7D                    6600 	.db #0x7d	; 125
      00115E 6D                    6601 	.db #0x6d	; 109	'm'
      00115F 6D                    6602 	.db #0x6d	; 109	'm'
      001160 55                    6603 	.db #0x55	; 85	'U'
      001161 55                    6604 	.db #0x55	; 85	'U'
      001162 39                    6605 	.db #0x39	; 57	'9'
      001163 39                    6606 	.db #0x39	; 57	'9'
      001164 7D                    6607 	.db #0x7d	; 125
      001165 7D                    6608 	.db #0x7d	; 125
      001166 FF                    6609 	.db #0xff	; 255
      001167 FF                    6610 	.db #0xff	; 255
      001168 7D                    6611 	.db #0x7d	; 125
      001169 7D                    6612 	.db #0x7d	; 125
      00116A BB                    6613 	.db #0xbb	; 187
      00116B BB                    6614 	.db #0xbb	; 187
      00116C D7                    6615 	.db #0xd7	; 215
      00116D D7                    6616 	.db #0xd7	; 215
      00116E EF                    6617 	.db #0xef	; 239
      00116F EF                    6618 	.db #0xef	; 239
      001170 D7                    6619 	.db #0xd7	; 215
      001171 D7                    6620 	.db #0xd7	; 215
      001172 BB                    6621 	.db #0xbb	; 187
      001173 BB                    6622 	.db #0xbb	; 187
      001174 7D                    6623 	.db #0x7d	; 125
      001175 7D                    6624 	.db #0x7d	; 125
      001176 FF                    6625 	.db #0xff	; 255
      001177 FF                    6626 	.db #0xff	; 255
      001178 7D                    6627 	.db #0x7d	; 125
      001179 7D                    6628 	.db #0x7d	; 125
      00117A BB                    6629 	.db #0xbb	; 187
      00117B BB                    6630 	.db #0xbb	; 187
      00117C D7                    6631 	.db #0xd7	; 215
      00117D D7                    6632 	.db #0xd7	; 215
      00117E EF                    6633 	.db #0xef	; 239
      00117F EF                    6634 	.db #0xef	; 239
      001180 EF                    6635 	.db #0xef	; 239
      001181 EF                    6636 	.db #0xef	; 239
      001182 EF                    6637 	.db #0xef	; 239
      001183 EF                    6638 	.db #0xef	; 239
      001184 EF                    6639 	.db #0xef	; 239
      001185 EF                    6640 	.db #0xef	; 239
      001186 FF                    6641 	.db #0xff	; 255
      001187 FF                    6642 	.db #0xff	; 255
      001188 01                    6643 	.db #0x01	; 1
      001189 01                    6644 	.db #0x01	; 1
      00118A FB                    6645 	.db #0xfb	; 251
      00118B FB                    6646 	.db #0xfb	; 251
      00118C F7                    6647 	.db #0xf7	; 247
      00118D F7                    6648 	.db #0xf7	; 247
      00118E EF                    6649 	.db #0xef	; 239
      00118F EF                    6650 	.db #0xef	; 239
      001190 DF                    6651 	.db #0xdf	; 223
      001191 DF                    6652 	.db #0xdf	; 223
      001192 BF                    6653 	.db #0xbf	; 191
      001193 BF                    6654 	.db #0xbf	; 191
      001194 01                    6655 	.db #0x01	; 1
      001195 01                    6656 	.db #0x01	; 1
      001196 FF                    6657 	.db #0xff	; 255
      001197 FF                    6658 	.db #0xff	; 255
      001198 11                    6659 	.db #0x11	; 17
      001199 11                    6660 	.db #0x11	; 17
      00119A 11                    6661 	.db #0x11	; 17
      00119B 11                    6662 	.db #0x11	; 17
      00119C 11                    6663 	.db #0x11	; 17
      00119D 11                    6664 	.db #0x11	; 17
      00119E 11                    6665 	.db #0x11	; 17
      00119F 11                    6666 	.db #0x11	; 17
      0011A0 BB                    6667 	.db #0xbb	; 187
      0011A1 BB                    6668 	.db #0xbb	; 187
      0011A2 FF                    6669 	.db #0xff	; 255
      0011A3 FF                    6670 	.db #0xff	; 255
      0011A4 BB                    6671 	.db #0xbb	; 187
      0011A5 BB                    6672 	.db #0xbb	; 187
      0011A6 FF                    6673 	.db #0xff	; 255
      0011A7 FF                    6674 	.db #0xff	; 255
      0011A8 FF                    6675 	.db #0xff	; 255
      0011A9 FF                    6676 	.db #0xff	; 255
      0011AA FF                    6677 	.db #0xff	; 255
      0011AB FF                    6678 	.db #0xff	; 255
      0011AC FF                    6679 	.db #0xff	; 255
      0011AD FF                    6680 	.db #0xff	; 255
      0011AE FF                    6681 	.db #0xff	; 255
      0011AF FF                    6682 	.db #0xff	; 255
      0011B0 FF                    6683 	.db #0xff	; 255
      0011B1 FF                    6684 	.db #0xff	; 255
      0011B2 FF                    6685 	.db #0xff	; 255
      0011B3 FF                    6686 	.db #0xff	; 255
      0011B4 FF                    6687 	.db #0xff	; 255
      0011B5 FF                    6688 	.db #0xff	; 255
      0011B6 FF                    6689 	.db #0xff	; 255
      0011B7 FF                    6690 	.db #0xff	; 255
      0011B8 00                    6691 	.db #0x00	; 0
      0011B9 00                    6692 	.db #0x00	; 0
      0011BA 7E                    6693 	.db #0x7e	; 126
      0011BB 4E                    6694 	.db #0x4e	; 78	'N'
      0011BC 7E                    6695 	.db #0x7e	; 126
      0011BD 32                    6696 	.db #0x32	; 50	'2'
      0011BE 7E                    6697 	.db #0x7e	; 126
      0011BF 5A                    6698 	.db #0x5a	; 90	'Z'
      0011C0 7E                    6699 	.db #0x7e	; 126
      0011C1 6C                    6700 	.db #0x6c	; 108	'l'
      0011C2 7E                    6701 	.db #0x7e	; 126
      0011C3 74                    6702 	.db #0x74	; 116	't'
      0011C4 7E                    6703 	.db #0x7e	; 126
      0011C5 7A                    6704 	.db #0x7a	; 122	'z'
      0011C6 00                    6705 	.db #0x00	; 0
      0011C7 00                    6706 	.db #0x00	; 0
      0011C8 00                    6707 	.db #0x00	; 0
      0011C9 00                    6708 	.db #0x00	; 0
      0011CA 7E                    6709 	.db #0x7e	; 126
      0011CB 7E                    6710 	.db #0x7e	; 126
      0011CC 72                    6711 	.db #0x72	; 114	'r'
      0011CD 7E                    6712 	.db #0x7e	; 126
      0011CE 6E                    6713 	.db #0x6e	; 110	'n'
      0011CF 7E                    6714 	.db #0x7e	; 126
      0011D0 4E                    6715 	.db #0x4e	; 78	'N'
      0011D1 76                    6716 	.db #0x76	; 118	'v'
      0011D2 4E                    6717 	.db #0x4e	; 78	'N'
      0011D3 76                    6718 	.db #0x76	; 118	'v'
      0011D4 7E                    6719 	.db #0x7e	; 126
      0011D5 46                    6720 	.db #0x46	; 70	'F'
      0011D6 00                    6721 	.db #0x00	; 0
      0011D7 00                    6722 	.db #0x00	; 0
      0011D8 00                    6723 	.db #0x00	; 0
      0011D9 00                    6724 	.db #0x00	; 0
      0011DA 7E                    6725 	.db #0x7e	; 126
      0011DB 7E                    6726 	.db #0x7e	; 126
      0011DC 5E                    6727 	.db #0x5e	; 94
      0011DD 1E                    6728 	.db #0x1e	; 30
      0011DE 7E                    6729 	.db #0x7e	; 126
      0011DF 1E                    6730 	.db #0x1e	; 30
      0011E0 36                    6731 	.db #0x36	; 54	'6'
      0011E1 46                    6732 	.db #0x46	; 70	'F'
      0011E2 5E                    6733 	.db #0x5e	; 94
      0011E3 66                    6734 	.db #0x66	; 102	'f'
      0011E4 6E                    6735 	.db #0x6e	; 110	'n'
      0011E5 72                    6736 	.db #0x72	; 114	'r'
      0011E6 00                    6737 	.db #0x00	; 0
      0011E7 00                    6738 	.db #0x00	; 0
      0011E8 00                    6739 	.db #0x00	; 0
      0011E9 00                    6740 	.db #0x00	; 0
      0011EA 7E                    6741 	.db #0x7e	; 126
      0011EB 7E                    6742 	.db #0x7e	; 126
      0011EC 7E                    6743 	.db #0x7e	; 126
      0011ED 7E                    6744 	.db #0x7e	; 126
      0011EE 7E                    6745 	.db #0x7e	; 126
      0011EF 7E                    6746 	.db #0x7e	; 126
      0011F0 7E                    6747 	.db #0x7e	; 126
      0011F1 7E                    6748 	.db #0x7e	; 126
      0011F2 7E                    6749 	.db #0x7e	; 126
      0011F3 7E                    6750 	.db #0x7e	; 126
      0011F4 7E                    6751 	.db #0x7e	; 126
      0011F5 7E                    6752 	.db #0x7e	; 126
      0011F6 00                    6753 	.db #0x00	; 0
      0011F7 00                    6754 	.db #0x00	; 0
      0011F8 C7                    6755 	.db #0xc7	; 199
      0011F9 C7                    6756 	.db #0xc7	; 199
      0011FA B3                    6757 	.db #0xb3	; 179
      0011FB B3                    6758 	.db #0xb3	; 179
      0011FC AB                    6759 	.db #0xab	; 171
      0011FD AB                    6760 	.db #0xab	; 171
      0011FE AB                    6761 	.db #0xab	; 171
      0011FF AB                    6762 	.db #0xab	; 171
      001200 AB                    6763 	.db #0xab	; 171
      001201 AB                    6764 	.db #0xab	; 171
      001202 9B                    6765 	.db #0x9b	; 155
      001203 9B                    6766 	.db #0x9b	; 155
      001204 C7                    6767 	.db #0xc7	; 199
      001205 C7                    6768 	.db #0xc7	; 199
      001206 FF                    6769 	.db #0xff	; 255
      001207 FF                    6770 	.db #0xff	; 255
      001208 CF                    6771 	.db #0xcf	; 207
      001209 CF                    6772 	.db #0xcf	; 207
      00120A AF                    6773 	.db #0xaf	; 175
      00120B AF                    6774 	.db #0xaf	; 175
      00120C EF                    6775 	.db #0xef	; 239
      00120D EF                    6776 	.db #0xef	; 239
      00120E EF                    6777 	.db #0xef	; 239
      00120F EF                    6778 	.db #0xef	; 239
      001210 EF                    6779 	.db #0xef	; 239
      001211 EF                    6780 	.db #0xef	; 239
      001212 EF                    6781 	.db #0xef	; 239
      001213 EF                    6782 	.db #0xef	; 239
      001214 83                    6783 	.db #0x83	; 131
      001215 83                    6784 	.db #0x83	; 131
      001216 FF                    6785 	.db #0xff	; 255
      001217 FF                    6786 	.db #0xff	; 255
      001218 87                    6787 	.db #0x87	; 135
      001219 87                    6788 	.db #0x87	; 135
      00121A FB                    6789 	.db #0xfb	; 251
      00121B FB                    6790 	.db #0xfb	; 251
      00121C FB                    6791 	.db #0xfb	; 251
      00121D FB                    6792 	.db #0xfb	; 251
      00121E C7                    6793 	.db #0xc7	; 199
      00121F C7                    6794 	.db #0xc7	; 199
      001220 BF                    6795 	.db #0xbf	; 191
      001221 BF                    6796 	.db #0xbf	; 191
      001222 BF                    6797 	.db #0xbf	; 191
      001223 BF                    6798 	.db #0xbf	; 191
      001224 C3                    6799 	.db #0xc3	; 195
      001225 C3                    6800 	.db #0xc3	; 195
      001226 FF                    6801 	.db #0xff	; 255
      001227 FF                    6802 	.db #0xff	; 255
      001228 C7                    6803 	.db #0xc7	; 199
      001229 C7                    6804 	.db #0xc7	; 199
      00122A BB                    6805 	.db #0xbb	; 187
      00122B BB                    6806 	.db #0xbb	; 187
      00122C FB                    6807 	.db #0xfb	; 251
      00122D FB                    6808 	.db #0xfb	; 251
      00122E C3                    6809 	.db #0xc3	; 195
      00122F C3                    6810 	.db #0xc3	; 195
      001230 FB                    6811 	.db #0xfb	; 251
      001231 FB                    6812 	.db #0xfb	; 251
      001232 BB                    6813 	.db #0xbb	; 187
      001233 BB                    6814 	.db #0xbb	; 187
      001234 C7                    6815 	.db #0xc7	; 199
      001235 C7                    6816 	.db #0xc7	; 199
      001236 FF                    6817 	.db #0xff	; 255
      001237 FF                    6818 	.db #0xff	; 255
      001238 BF                    6819 	.db #0xbf	; 191
      001239 BF                    6820 	.db #0xbf	; 191
      00123A BB                    6821 	.db #0xbb	; 187
      00123B BB                    6822 	.db #0xbb	; 187
      00123C BB                    6823 	.db #0xbb	; 187
      00123D BB                    6824 	.db #0xbb	; 187
      00123E C3                    6825 	.db #0xc3	; 195
      00123F C3                    6826 	.db #0xc3	; 195
      001240 FB                    6827 	.db #0xfb	; 251
      001241 FB                    6828 	.db #0xfb	; 251
      001242 FB                    6829 	.db #0xfb	; 251
      001243 FB                    6830 	.db #0xfb	; 251
      001244 FB                    6831 	.db #0xfb	; 251
      001245 FB                    6832 	.db #0xfb	; 251
      001246 FF                    6833 	.db #0xff	; 255
      001247 FF                    6834 	.db #0xff	; 255
      001248 83                    6835 	.db #0x83	; 131
      001249 83                    6836 	.db #0x83	; 131
      00124A BF                    6837 	.db #0xbf	; 191
      00124B BF                    6838 	.db #0xbf	; 191
      00124C BF                    6839 	.db #0xbf	; 191
      00124D BF                    6840 	.db #0xbf	; 191
      00124E 87                    6841 	.db #0x87	; 135
      00124F 87                    6842 	.db #0x87	; 135
      001250 FB                    6843 	.db #0xfb	; 251
      001251 FB                    6844 	.db #0xfb	; 251
      001252 FB                    6845 	.db #0xfb	; 251
      001253 FB                    6846 	.db #0xfb	; 251
      001254 87                    6847 	.db #0x87	; 135
      001255 87                    6848 	.db #0x87	; 135
      001256 FF                    6849 	.db #0xff	; 255
      001257 FF                    6850 	.db #0xff	; 255
      001258 C7                    6851 	.db #0xc7	; 199
      001259 C7                    6852 	.db #0xc7	; 199
      00125A BF                    6853 	.db #0xbf	; 191
      00125B BF                    6854 	.db #0xbf	; 191
      00125C BF                    6855 	.db #0xbf	; 191
      00125D BF                    6856 	.db #0xbf	; 191
      00125E 87                    6857 	.db #0x87	; 135
      00125F 87                    6858 	.db #0x87	; 135
      001260 BB                    6859 	.db #0xbb	; 187
      001261 BB                    6860 	.db #0xbb	; 187
      001262 BB                    6861 	.db #0xbb	; 187
      001263 BB                    6862 	.db #0xbb	; 187
      001264 C7                    6863 	.db #0xc7	; 199
      001265 C7                    6864 	.db #0xc7	; 199
      001266 FF                    6865 	.db #0xff	; 255
      001267 FF                    6866 	.db #0xff	; 255
      001268 87                    6867 	.db #0x87	; 135
      001269 87                    6868 	.db #0x87	; 135
      00126A FB                    6869 	.db #0xfb	; 251
      00126B FB                    6870 	.db #0xfb	; 251
      00126C FB                    6871 	.db #0xfb	; 251
      00126D FB                    6872 	.db #0xfb	; 251
      00126E C3                    6873 	.db #0xc3	; 195
      00126F C3                    6874 	.db #0xc3	; 195
      001270 FB                    6875 	.db #0xfb	; 251
      001271 FB                    6876 	.db #0xfb	; 251
      001272 FB                    6877 	.db #0xfb	; 251
      001273 FB                    6878 	.db #0xfb	; 251
      001274 FB                    6879 	.db #0xfb	; 251
      001275 FB                    6880 	.db #0xfb	; 251
      001276 FF                    6881 	.db #0xff	; 255
      001277 FF                    6882 	.db #0xff	; 255
      001278 C7                    6883 	.db #0xc7	; 199
      001279 C7                    6884 	.db #0xc7	; 199
      00127A BB                    6885 	.db #0xbb	; 187
      00127B BB                    6886 	.db #0xbb	; 187
      00127C BB                    6887 	.db #0xbb	; 187
      00127D BB                    6888 	.db #0xbb	; 187
      00127E C7                    6889 	.db #0xc7	; 199
      00127F C7                    6890 	.db #0xc7	; 199
      001280 BB                    6891 	.db #0xbb	; 187
      001281 BB                    6892 	.db #0xbb	; 187
      001282 BB                    6893 	.db #0xbb	; 187
      001283 BB                    6894 	.db #0xbb	; 187
      001284 C7                    6895 	.db #0xc7	; 199
      001285 C7                    6896 	.db #0xc7	; 199
      001286 FF                    6897 	.db #0xff	; 255
      001287 FF                    6898 	.db #0xff	; 255
      001288 C7                    6899 	.db #0xc7	; 199
      001289 C7                    6900 	.db #0xc7	; 199
      00128A BB                    6901 	.db #0xbb	; 187
      00128B BB                    6902 	.db #0xbb	; 187
      00128C BB                    6903 	.db #0xbb	; 187
      00128D BB                    6904 	.db #0xbb	; 187
      00128E C3                    6905 	.db #0xc3	; 195
      00128F C3                    6906 	.db #0xc3	; 195
      001290 FB                    6907 	.db #0xfb	; 251
      001291 FB                    6908 	.db #0xfb	; 251
      001292 FB                    6909 	.db #0xfb	; 251
      001293 FB                    6910 	.db #0xfb	; 251
      001294 FB                    6911 	.db #0xfb	; 251
      001295 FB                    6912 	.db #0xfb	; 251
      001296 FF                    6913 	.db #0xff	; 255
      001297 FF                    6914 	.db #0xff	; 255
      001298                       6915 __xinit__w_dialogue_001:
      001298 99                    6916 	.db #0x99	; 153
      001299 99                    6917 	.db #0x99	; 153
      00129A 99                    6918 	.db #0x99	; 153
      00129B 99                    6919 	.db #0x99	; 153
      00129C 99                    6920 	.db #0x99	; 153
      00129D 99                    6921 	.db #0x99	; 153
      00129E 99                    6922 	.db #0x99	; 153
      00129F 99                    6923 	.db #0x99	; 153
      0012A0 99                    6924 	.db #0x99	; 153
      0012A1 99                    6925 	.db #0x99	; 153
      0012A2 99                    6926 	.db #0x99	; 153
      0012A3 99                    6927 	.db #0x99	; 153
      0012A4 99                    6928 	.db #0x99	; 153
      0012A5 99                    6929 	.db #0x99	; 153
      0012A6 99                    6930 	.db #0x99	; 153
      0012A7 99                    6931 	.db #0x99	; 153
      0012A8 99                    6932 	.db #0x99	; 153
      0012A9 75                    6933 	.db #0x75	; 117	'u'
      0012AA 76                    6934 	.db #0x76	; 118	'v'
      0012AB 77                    6935 	.db #0x77	; 119	'w'
      0012AC 8A                    6936 	.db #0x8a	; 138
      0012AD 96                    6937 	.db #0x96	; 150
      0012AE 99                    6938 	.db #0x99	; 153
      0012AF 7F                    6939 	.db #0x7f	; 127
      0012B0 8C                    6940 	.db #0x8c	; 140
      0012B1 94                    6941 	.db #0x94	; 148
      0012B2 99                    6942 	.db #0x99	; 153
      0012B3 86                    6943 	.db #0x86	; 134
      0012B4 90                    6944 	.db #0x90	; 144
      0012B5 99                    6945 	.db #0x99	; 153
      0012B6 86                    6946 	.db #0x86	; 134
      0012B7 8B                    6947 	.db #0x8b	; 139
      0012B8 90                    6948 	.db #0x90	; 144
      0012B9 86                    6949 	.db #0x86	; 134
      0012BA 81                    6950 	.db #0x81	; 129
      0012BB 82                    6951 	.db #0x82	; 130
      0012BC 99                    6952 	.db #0x99	; 153
      0012BD 78                    6953 	.db #0x78	; 120	'x'
      0012BE 79                    6954 	.db #0x79	; 121	'y'
      0012BF 7A                    6955 	.db #0x7a	; 122	'z'
      0012C0 91                    6956 	.db #0x91	; 145
      0012C1 85                    6957 	.db #0x85	; 133
      0012C2 7E                    6958 	.db #0x7e	; 126
      0012C3 91                    6959 	.db #0x91	; 145
      0012C4 99                    6960 	.db #0x99	; 153
      0012C5 80                    6961 	.db #0x80	; 128
      0012C6 85                    6962 	.db #0x85	; 133
      0012C7 92                    6963 	.db #0x92	; 146
      0012C8 8F                    6964 	.db #0x8f	; 143
      0012C9 80                    6965 	.db #0x80	; 128
      0012CA 85                    6966 	.db #0x85	; 133
      0012CB 98                    6967 	.db #0x98	; 152
      0012CC 99                    6968 	.db #0x99	; 153
      0012CD 99                    6969 	.db #0x99	; 153
      0012CE 99                    6970 	.db #0x99	; 153
      0012CF 99                    6971 	.db #0x99	; 153
      0012D0 99                    6972 	.db #0x99	; 153
      0012D1 7B                    6973 	.db #0x7b	; 123
      0012D2 7C                    6974 	.db #0x7c	; 124
      0012D3 7D                    6975 	.db #0x7d	; 125
      0012D4                       6976 __xinit__w_dialogue_002:
      0012D4 99                    6977 	.db #0x99	; 153
      0012D5 99                    6978 	.db #0x99	; 153
      0012D6 99                    6979 	.db #0x99	; 153
      0012D7 99                    6980 	.db #0x99	; 153
      0012D8 99                    6981 	.db #0x99	; 153
      0012D9 99                    6982 	.db #0x99	; 153
      0012DA 99                    6983 	.db #0x99	; 153
      0012DB 99                    6984 	.db #0x99	; 153
      0012DC 99                    6985 	.db #0x99	; 153
      0012DD 99                    6986 	.db #0x99	; 153
      0012DE 99                    6987 	.db #0x99	; 153
      0012DF 99                    6988 	.db #0x99	; 153
      0012E0 99                    6989 	.db #0x99	; 153
      0012E1 99                    6990 	.db #0x99	; 153
      0012E2 99                    6991 	.db #0x99	; 153
      0012E3 99                    6992 	.db #0x99	; 153
      0012E4 99                    6993 	.db #0x99	; 153
      0012E5 75                    6994 	.db #0x75	; 117	'u'
      0012E6 76                    6995 	.db #0x76	; 118	'v'
      0012E7 77                    6996 	.db #0x77	; 119	'w'
      0012E8 8B                    6997 	.db #0x8b	; 139
      0012E9 86                    6998 	.db #0x86	; 134
      0012EA 80                    6999 	.db #0x80	; 128
      0012EB 82                    7000 	.db #0x82	; 130
      0012EC 82                    7001 	.db #0x82	; 130
      0012ED 82                    7002 	.db #0x82	; 130
      0012EE 82                    7003 	.db #0x82	; 130
      0012EF 82                    7004 	.db #0x82	; 130
      0012F0 82                    7005 	.db #0x82	; 130
      0012F1 82                    7006 	.db #0x82	; 130
      0012F2 82                    7007 	.db #0x82	; 130
      0012F3 82                    7008 	.db #0x82	; 130
      0012F4 98                    7009 	.db #0x98	; 152
      0012F5 98                    7010 	.db #0x98	; 152
      0012F6 98                    7011 	.db #0x98	; 152
      0012F7 99                    7012 	.db #0x99	; 153
      0012F8 99                    7013 	.db #0x99	; 153
      0012F9 78                    7014 	.db #0x78	; 120	'x'
      0012FA 79                    7015 	.db #0x79	; 121	'y'
      0012FB 7A                    7016 	.db #0x7a	; 122	'z'
      0012FC 99                    7017 	.db #0x99	; 153
      0012FD 99                    7018 	.db #0x99	; 153
      0012FE 99                    7019 	.db #0x99	; 153
      0012FF 99                    7020 	.db #0x99	; 153
      001300 99                    7021 	.db #0x99	; 153
      001301 99                    7022 	.db #0x99	; 153
      001302 99                    7023 	.db #0x99	; 153
      001303 99                    7024 	.db #0x99	; 153
      001304 99                    7025 	.db #0x99	; 153
      001305 99                    7026 	.db #0x99	; 153
      001306 99                    7027 	.db #0x99	; 153
      001307 99                    7028 	.db #0x99	; 153
      001308 99                    7029 	.db #0x99	; 153
      001309 99                    7030 	.db #0x99	; 153
      00130A 99                    7031 	.db #0x99	; 153
      00130B 99                    7032 	.db #0x99	; 153
      00130C 99                    7033 	.db #0x99	; 153
      00130D 7B                    7034 	.db #0x7b	; 123
      00130E 7C                    7035 	.db #0x7c	; 124
      00130F 7D                    7036 	.db #0x7d	; 125
      001310                       7037 __xinit__w_dialogue_003:
      001310 80                    7038 	.db #0x80	; 128
      001311 8F                    7039 	.db #0x8f	; 143
      001312 7E                    7040 	.db #0x7e	; 126
      001313 8D                    7041 	.db #0x8d	; 141
      001314 98                    7042 	.db #0x98	; 152
      001315 99                    7043 	.db #0x99	; 153
      001316 91                    7044 	.db #0x91	; 145
      001317 85                    7045 	.db #0x85	; 133
      001318 82                    7046 	.db #0x82	; 130
      001319 8F                    7047 	.db #0x8f	; 143
      00131A 82                    7048 	.db #0x82	; 130
      00131B 99                    7049 	.db #0x99	; 153
      00131C 7E                    7050 	.db #0x7e	; 126
      00131D 8F                    7051 	.db #0x8f	; 143
      00131E 82                    7052 	.db #0x82	; 130
      00131F 99                    7053 	.db #0x99	; 153
      001320 99                    7054 	.db #0x99	; 153
      001321 75                    7055 	.db #0x75	; 117	'u'
      001322 76                    7056 	.db #0x76	; 118	'v'
      001323 77                    7057 	.db #0x77	; 119	'w'
      001324 91                    7058 	.db #0x91	; 145
      001325 8C                    7059 	.db #0x8c	; 140
      001326 99                    7060 	.db #0x99	; 153
      001327 8A                    7061 	.db #0x8a	; 138
      001328 7E                    7062 	.db #0x7e	; 126
      001329 8B                    7063 	.db #0x8b	; 139
      00132A 96                    7064 	.db #0x96	; 150
      00132B 98                    7065 	.db #0x98	; 152
      00132C 98                    7066 	.db #0x98	; 152
      00132D 99                    7067 	.db #0x99	; 153
      00132E 99                    7068 	.db #0x99	; 153
      00132F 99                    7069 	.db #0x99	; 153
      001330 99                    7070 	.db #0x99	; 153
      001331 99                    7071 	.db #0x99	; 153
      001332 99                    7072 	.db #0x99	; 153
      001333 99                    7073 	.db #0x99	; 153
      001334 99                    7074 	.db #0x99	; 153
      001335 78                    7075 	.db #0x78	; 120	'x'
      001336 79                    7076 	.db #0x79	; 121	'y'
      001337 7A                    7077 	.db #0x7a	; 122	'z'
      001338 99                    7078 	.db #0x99	; 153
      001339 99                    7079 	.db #0x99	; 153
      00133A 99                    7080 	.db #0x99	; 153
      00133B 99                    7081 	.db #0x99	; 153
      00133C 99                    7082 	.db #0x99	; 153
      00133D 99                    7083 	.db #0x99	; 153
      00133E 99                    7084 	.db #0x99	; 153
      00133F 99                    7085 	.db #0x99	; 153
      001340 99                    7086 	.db #0x99	; 153
      001341 99                    7087 	.db #0x99	; 153
      001342 99                    7088 	.db #0x99	; 153
      001343 99                    7089 	.db #0x99	; 153
      001344 99                    7090 	.db #0x99	; 153
      001345 99                    7091 	.db #0x99	; 153
      001346 99                    7092 	.db #0x99	; 153
      001347 99                    7093 	.db #0x99	; 153
      001348 99                    7094 	.db #0x99	; 153
      001349 7B                    7095 	.db #0x7b	; 123
      00134A 7C                    7096 	.db #0x7c	; 124
      00134B 7D                    7097 	.db #0x7d	; 125
      00134C                       7098 __xinit__r_stat_001:
      00134C 85                    7099 	.db #0x85	; 133
      00134D 82                    7100 	.db #0x82	; 130
      00134E 7E                    7101 	.db #0x7e	; 126
      00134F 89                    7102 	.db #0x89	; 137
      001350 91                    7103 	.db #0x91	; 145
      001351 85                    7104 	.db #0x85	; 133
      001352 99                    7105 	.db #0x99	; 153
      001353 99                    7106 	.db #0x99	; 153
      001354 99                    7107 	.db #0x99	; 153
      001355 99                    7108 	.db #0x99	; 153
      001356 99                    7109 	.db #0x99	; 153
      001357 99                    7110 	.db #0x99	; 153
      001358 94                    7111 	.db #0x94	; 148
      001359 82                    7112 	.db #0x82	; 130
      00135A 7E                    7113 	.db #0x7e	; 126
      00135B 8D                    7114 	.db #0x8d	; 141
      00135C 8C                    7115 	.db #0x8c	; 140
      00135D 8B                    7116 	.db #0x8b	; 139
      00135E 99                    7117 	.db #0x99	; 153
      00135F 9D                    7118 	.db #0x9d	; 157
      001360 99                    7119 	.db #0x99	; 153
      001361 99                    7120 	.db #0x99	; 153
      001362 99                    7121 	.db #0x99	; 153
      001363 99                    7122 	.db #0x99	; 153
      001364 99                    7123 	.db #0x99	; 153
      001365 99                    7124 	.db #0x99	; 153
      001366 99                    7125 	.db #0x99	; 153
      001367 99                    7126 	.db #0x99	; 153
      001368 99                    7127 	.db #0x99	; 153
      001369 99                    7128 	.db #0x99	; 153
      00136A 99                    7129 	.db #0x99	; 153
      00136B 99                    7130 	.db #0x99	; 153
      00136C 99                    7131 	.db #0x99	; 153
      00136D 99                    7132 	.db #0x99	; 153
      00136E 99                    7133 	.db #0x99	; 153
      00136F 99                    7134 	.db #0x99	; 153
      001370 99                    7135 	.db #0x99	; 153
      001371 99                    7136 	.db #0x99	; 153
      001372 99                    7137 	.db #0x99	; 153
      001373 99                    7138 	.db #0x99	; 153
      001374 99                    7139 	.db #0x99	; 153
      001375 99                    7140 	.db #0x99	; 153
      001376 99                    7141 	.db #0x99	; 153
      001377 99                    7142 	.db #0x99	; 153
      001378 99                    7143 	.db #0x99	; 153
      001379 99                    7144 	.db #0x99	; 153
      00137A 99                    7145 	.db #0x99	; 153
      00137B 99                    7146 	.db #0x99	; 153
      00137C 99                    7147 	.db #0x99	; 153
      00137D 99                    7148 	.db #0x99	; 153
      00137E 99                    7149 	.db #0x99	; 153
      00137F 99                    7150 	.db #0x99	; 153
      001380 99                    7151 	.db #0x99	; 153
      001381 99                    7152 	.db #0x99	; 153
      001382 99                    7153 	.db #0x99	; 153
      001383 99                    7154 	.db #0x99	; 153
      001384 99                    7155 	.db #0x99	; 153
      001385 99                    7156 	.db #0x99	; 153
      001386 99                    7157 	.db #0x99	; 153
      001387 99                    7158 	.db #0x99	; 153
      001388                       7159 __xinit__r_stat_002:
      001388 85                    7160 	.db #0x85	; 133
      001389 82                    7161 	.db #0x82	; 130
      00138A 7E                    7162 	.db #0x7e	; 126
      00138B 89                    7163 	.db #0x89	; 137
      00138C 91                    7164 	.db #0x91	; 145
      00138D 85                    7165 	.db #0x85	; 133
      00138E 99                    7166 	.db #0x99	; 153
      00138F 99                    7167 	.db #0x99	; 153
      001390 99                    7168 	.db #0x99	; 153
      001391 99                    7169 	.db #0x99	; 153
      001392 99                    7170 	.db #0x99	; 153
      001393 99                    7171 	.db #0x99	; 153
      001394 94                    7172 	.db #0x94	; 148
      001395 82                    7173 	.db #0x82	; 130
      001396 7E                    7174 	.db #0x7e	; 126
      001397 8D                    7175 	.db #0x8d	; 141
      001398 8C                    7176 	.db #0x8c	; 140
      001399 8B                    7177 	.db #0x8b	; 139
      00139A 99                    7178 	.db #0x99	; 153
      00139B 9A                    7179 	.db #0x9a	; 154
      00139C 99                    7180 	.db #0x99	; 153
      00139D 99                    7181 	.db #0x99	; 153
      00139E 99                    7182 	.db #0x99	; 153
      00139F 99                    7183 	.db #0x99	; 153
      0013A0 99                    7184 	.db #0x99	; 153
      0013A1 99                    7185 	.db #0x99	; 153
      0013A2 99                    7186 	.db #0x99	; 153
      0013A3 99                    7187 	.db #0x99	; 153
      0013A4 99                    7188 	.db #0x99	; 153
      0013A5 99                    7189 	.db #0x99	; 153
      0013A6 99                    7190 	.db #0x99	; 153
      0013A7 99                    7191 	.db #0x99	; 153
      0013A8 99                    7192 	.db #0x99	; 153
      0013A9 99                    7193 	.db #0x99	; 153
      0013AA 99                    7194 	.db #0x99	; 153
      0013AB 99                    7195 	.db #0x99	; 153
      0013AC 99                    7196 	.db #0x99	; 153
      0013AD 99                    7197 	.db #0x99	; 153
      0013AE 99                    7198 	.db #0x99	; 153
      0013AF 99                    7199 	.db #0x99	; 153
      0013B0 99                    7200 	.db #0x99	; 153
      0013B1 99                    7201 	.db #0x99	; 153
      0013B2 99                    7202 	.db #0x99	; 153
      0013B3 99                    7203 	.db #0x99	; 153
      0013B4 99                    7204 	.db #0x99	; 153
      0013B5 99                    7205 	.db #0x99	; 153
      0013B6 99                    7206 	.db #0x99	; 153
      0013B7 99                    7207 	.db #0x99	; 153
      0013B8 99                    7208 	.db #0x99	; 153
      0013B9 99                    7209 	.db #0x99	; 153
      0013BA 99                    7210 	.db #0x99	; 153
      0013BB 99                    7211 	.db #0x99	; 153
      0013BC 99                    7212 	.db #0x99	; 153
      0013BD 99                    7213 	.db #0x99	; 153
      0013BE 99                    7214 	.db #0x99	; 153
      0013BF 99                    7215 	.db #0x99	; 153
      0013C0 99                    7216 	.db #0x99	; 153
      0013C1 99                    7217 	.db #0x99	; 153
      0013C2 99                    7218 	.db #0x99	; 153
      0013C3 99                    7219 	.db #0x99	; 153
      0013C4                       7220 __xinit__r_stat_003:
      0013C4 85                    7221 	.db #0x85	; 133
      0013C5 82                    7222 	.db #0x82	; 130
      0013C6 7E                    7223 	.db #0x7e	; 126
      0013C7 89                    7224 	.db #0x89	; 137
      0013C8 91                    7225 	.db #0x91	; 145
      0013C9 85                    7226 	.db #0x85	; 133
      0013CA 99                    7227 	.db #0x99	; 153
      0013CB 99                    7228 	.db #0x99	; 153
      0013CC 99                    7229 	.db #0x99	; 153
      0013CD 99                    7230 	.db #0x99	; 153
      0013CE 99                    7231 	.db #0x99	; 153
      0013CF 99                    7232 	.db #0x99	; 153
      0013D0 94                    7233 	.db #0x94	; 148
      0013D1 82                    7234 	.db #0x82	; 130
      0013D2 7E                    7235 	.db #0x7e	; 126
      0013D3 8D                    7236 	.db #0x8d	; 141
      0013D4 8C                    7237 	.db #0x8c	; 140
      0013D5 8B                    7238 	.db #0x8b	; 139
      0013D6 99                    7239 	.db #0x99	; 153
      0013D7 9B                    7240 	.db #0x9b	; 155
      0013D8 99                    7241 	.db #0x99	; 153
      0013D9 99                    7242 	.db #0x99	; 153
      0013DA 99                    7243 	.db #0x99	; 153
      0013DB 99                    7244 	.db #0x99	; 153
      0013DC 99                    7245 	.db #0x99	; 153
      0013DD 99                    7246 	.db #0x99	; 153
      0013DE 99                    7247 	.db #0x99	; 153
      0013DF 99                    7248 	.db #0x99	; 153
      0013E0 99                    7249 	.db #0x99	; 153
      0013E1 99                    7250 	.db #0x99	; 153
      0013E2 99                    7251 	.db #0x99	; 153
      0013E3 99                    7252 	.db #0x99	; 153
      0013E4 99                    7253 	.db #0x99	; 153
      0013E5 99                    7254 	.db #0x99	; 153
      0013E6 99                    7255 	.db #0x99	; 153
      0013E7 99                    7256 	.db #0x99	; 153
      0013E8 99                    7257 	.db #0x99	; 153
      0013E9 99                    7258 	.db #0x99	; 153
      0013EA 99                    7259 	.db #0x99	; 153
      0013EB 99                    7260 	.db #0x99	; 153
      0013EC 99                    7261 	.db #0x99	; 153
      0013ED 99                    7262 	.db #0x99	; 153
      0013EE 99                    7263 	.db #0x99	; 153
      0013EF 99                    7264 	.db #0x99	; 153
      0013F0 99                    7265 	.db #0x99	; 153
      0013F1 99                    7266 	.db #0x99	; 153
      0013F2 99                    7267 	.db #0x99	; 153
      0013F3 99                    7268 	.db #0x99	; 153
      0013F4 99                    7269 	.db #0x99	; 153
      0013F5 99                    7270 	.db #0x99	; 153
      0013F6 99                    7271 	.db #0x99	; 153
      0013F7 99                    7272 	.db #0x99	; 153
      0013F8 99                    7273 	.db #0x99	; 153
      0013F9 99                    7274 	.db #0x99	; 153
      0013FA 99                    7275 	.db #0x99	; 153
      0013FB 99                    7276 	.db #0x99	; 153
      0013FC 99                    7277 	.db #0x99	; 153
      0013FD 99                    7278 	.db #0x99	; 153
      0013FE 99                    7279 	.db #0x99	; 153
      0013FF 99                    7280 	.db #0x99	; 153
      001400                       7281 __xinit__offset:
      001400 08                    7282 	.db #0x08	; 8
      001401                       7283 __xinit__frame:
      001401 00                    7284 	.db #0x00	; 0
      001402                       7285 __xinit__scrollAviable:
      001402 00                    7286 	.db #0x00	; 0
      001403                       7287 __xinit__enemySet:
      001403 00                    7288 	.db #0x00	; 0
      001404                       7289 __xinit__from:
      001404 00                    7290 	.db #0x00	; 0
      001405                       7291 __xinit__speedJ:
      001405 E8                    7292 	.db #0xe8	; 232
      001406 F0                    7293 	.db #0xf0	; 240
      001407 F8                    7294 	.db #0xf8	; 248
      001408 FC                    7295 	.db #0xfc	; 252
      001409 00                    7296 	.db #0x00	; 0
      00140A 04                    7297 	.db #0x04	; 4
      00140B 08                    7298 	.db #0x08	; 8
      00140C 10                    7299 	.db #0x10	; 16
      00140D 18                    7300 	.db #0x18	; 24
      00140E                       7301 __xinit__speedD:
      00140E 10                    7302 	.db #0x10	; 16
      00140F 08                    7303 	.db #0x08	; 8
      001410 04                    7304 	.db #0x04	; 4
      001411 02                    7305 	.db #0x02	; 2
      001412                       7306 __xinit__animation_tiles:
      001412 04                    7307 	.db #0x04	; 4
      001413 08                    7308 	.db #0x08	; 8
      001414 0C                    7309 	.db #0x0c	; 12
      001415                       7310 __xinit__animation_tiles2:
      001415 06                    7311 	.db #0x06	; 6
      001416 0A                    7312 	.db #0x0a	; 10
      001417 0E                    7313 	.db #0x0e	; 14
      001418                       7314 __xinit__e_animation_tiles:
      001418 1C                    7315 	.db #0x1c	; 28
      001419 20                    7316 	.db #0x20	; 32
      00141A 24                    7317 	.db #0x24	; 36
      00141B 28                    7318 	.db #0x28	; 40
      00141C                       7319 __xinit__e_animation_tiles2:
      00141C 1E                    7320 	.db #0x1e	; 30
      00141D 22                    7321 	.db #0x22	; 34
      00141E 26                    7322 	.db #0x26	; 38
      00141F 2A                    7323 	.db #0x2a	; 42
                                   7324 	.area _CABS (ABS)
